 serialport

 Timestamp is 597d6382 (Sun Jul 30 04:41:38 2017)

 Preferred load address is 0000000180000000

 Start         Length     Name                   Class
 0001:00000000 000000d0H .text$di                CODE
 0001:000000d0 00016947H .text$mn                CODE
 0001:00016a20 00001148H .text$x                 CODE
 0001:00017b70 000000ccH .text$yd                CODE
 0002:00000000 000002e0H .idata$5                DATA
 0002:000002e0 00000008H .CRT$XCA                DATA
 0002:000002e8 00000030H .CRT$XCU                DATA
 0002:00000318 00000008H .CRT$XCZ                DATA
 0002:00000320 00000008H .CRT$XIA                DATA
 0002:00000328 00000020H .CRT$XIC                DATA
 0002:00000348 00000008H .CRT$XIZ                DATA
 0002:00000350 00000008H .CRT$XPA                DATA
 0002:00000358 00000010H .CRT$XPX                DATA
 0002:00000368 00000008H .CRT$XPXA               DATA
 0002:00000370 00000008H .CRT$XPZ                DATA
 0002:00000378 00000008H .CRT$XTA                DATA
 0002:00000380 00000008H .CRT$XTZ                DATA
 0002:00000390 00008470H .rdata                  DATA
 0002:00008800 00000068H .rdata$debug            DATA
 0002:00008868 0000037cH .rdata$r                DATA
 0002:00008be8 00000008H .rtc$IAA                DATA
 0002:00008bf0 00000008H .rtc$IZZ                DATA
 0002:00008bf8 00000008H .rtc$TAA                DATA
 0002:00008c00 00000008H .rtc$TZZ                DATA
 0002:00008c10 00002178H .xdata                  DATA
 0002:0000ad88 000001dcH .xdata$x                DATA
 0002:0000af64 00000020H .didat$2                DATA
 0002:0000af84 00000020H .didat$3                DATA
 0002:0000afa8 000001e8H .didat$4                DATA
 0002:0000b190 00000f2eH .didat$6                DATA
 0002:0000c0c0 000001e8H .didat$7                DATA
 0002:0000c2b0 00000058H .edata                  DATA
 0002:0000c308 0000003cH .idata$2                DATA
 0002:0000c344 00000014H .idata$3                DATA
 0002:0000c358 000002e0H .idata$4                DATA
 0002:0000c638 000006beH .idata$6                DATA
 0003:00000000 00001898H .data                   DATA
 0003:00001898 00000110H .data$r                 DATA
 0003:000019a8 000001e8H .didat$5                DATA
 0003:00001ba0 000024c8H .bss                    DATA
 0004:00000000 000011dcH .pdata                  DATA
 0005:00000000 00000058H .rsrc$01                DATA
 0005:00000060 00000180H .rsrc$02                DATA

  Address         Publics by Value              Rva+Base               Lib:Object

 0000:00000000       ___safe_se_handler_count   0000000000000000     <absolute>
 0000:00000000       __guard_fids_count         0000000000000000     <absolute>
 0000:00000000       ___safe_se_handler_table   0000000000000000     <absolute>
 0000:00000000       __guard_fids_table         0000000000000000     <absolute>
 0000:00000000       __guard_flags              0000000000000000     <absolute>
 0000:00000000       __ImageBase                0000000180000000     <linker-defined>
 0001:000000d0       ??1?$Persistent@VFunction@v8@@V?$NonCopyablePersistentTraits@VFunction@v8@@@2@@v8@@QEAA@XZ 00000001800010d0 f i serialport.obj
 0001:000000d0       ??3@YAXPEAX0@Z             00000001800010d0 f i serialport.obj
 0001:000000d0       ??$destroy@PEAU?$_List_node@HPEAX@std@@@?$_Wrap_alloc@V?$allocator@U?$_List_node@HPEAX@std@@@std@@@std@@QEAAXPEAPEAU?$_List_node@HPEAX@1@@Z 00000001800010d0 f i serialport_win.obj
 0001:000000d0       ??1?$Persistent@VObject@v8@@V?$NonCopyablePersistentTraits@VObject@v8@@@2@@v8@@QEAA@XZ 00000001800010d0 f i serialport_win.obj
 0001:000000d0       ??$destroy@H@?$_Wrap_alloc@V?$allocator@U?$_List_node@HPEAX@std@@@std@@@std@@QEAAXPEAH@Z 00000001800010d0 f i serialport_win.obj
 0001:000001b0       ?NewInstance@Nan@@YA?AV?$MaybeLocal@VObject@v8@@@v8@@V?$Local@VObjectTemplate@v8@@@3@@Z 00000001800011b0 f i serialport.obj
 0001:00000250       ?GetFunction@Nan@@YA?AV?$MaybeLocal@VFunction@v8@@@v8@@V?$Local@VFunctionTemplate@v8@@@3@@Z 0000000180001250 f i serialport.obj
 0001:000002f0       ?Get@Nan@@YA?AV?$MaybeLocal@VValue@v8@@@v8@@V?$Local@VObject@v8@@@3@V?$Local@VValue@v8@@@3@@Z 00000001800012f0 f i serialport.obj
 0001:000003a0       ?Has@Nan@@YA?AV?$Maybe@_N@v8@@V?$Local@VObject@v8@@@3@V?$Local@VString@v8@@@3@@Z 00000001800013a0 f i serialport.obj
 0001:00000420       ?convert@?$ToFactory@VBoolean@v8@@@imp@Nan@@SA?AV?$MaybeLocal@VBoolean@v8@@@v8@@V?$Local@VValue@v8@@@5@@Z 0000000180001420 f i serialport.obj
 0001:000004c0       ?convert@?$ToFactory@VString@v8@@@imp@Nan@@SA?AV?$MaybeLocal@VString@v8@@@v8@@V?$Local@VValue@v8@@@5@@Z 00000001800014c0 f i serialport.obj
 0001:00000560       ?convert@?$ToFactory@VInt32@v8@@@imp@Nan@@SA?AV?$MaybeLocal@VInt32@v8@@@v8@@V?$Local@VValue@v8@@@5@@Z 0000000180001560 f i serialport.obj
 0001:00000600       ?convert@?$ToFactory@N@imp@Nan@@SA?AV?$Maybe@N@v8@@V?$Local@VValue@v8@@@5@@Z 0000000180001600 f i serialport.obj
 0001:00000680       ?convert@?$ToFactory@H@imp@Nan@@SA?AV?$Maybe@H@v8@@V?$Local@VValue@v8@@@5@@Z 0000000180001680 f i serialport.obj
 0001:00000700       ?New@?$Factory@VFunctionTemplate@v8@@@imp@Nan@@SA?AV?$Local@VFunctionTemplate@v8@@@v8@@P6AXAEBV?$FunctionCallbackInfo@VValue@v8@@@3@@ZV?$Local@VValue@v8@@@5@V?$Local@VSignature@v8@@@5@@Z 0000000180001700 f i serialport.obj
 0001:00000880       ??1EscapableHandleScope@Nan@@QEAA@XZ 0000000180001880 f i serialport.obj
 0001:000008b0       ??1HandleScope@Nan@@QEAA@XZ 00000001800018b0 f i serialport.obj
 0001:000008d0       ?ThrowTypeError@Nan@@YAXPEBD@Z 00000001800018d0 f i serialport.obj
 0001:00000970       ??0Utf8String@Nan@@QEAA@V?$Local@VValue@v8@@@v8@@@Z 0000000180001970 f i serialport.obj
 0001:00000a80       ??1Utf8String@Nan@@QEAA@XZ 0000000180001a80 f i serialport.obj
 0001:00000aa0       ??1Callback@Nan@@QEAA@XZ   0000000180001aa0 f i serialport.obj
 0001:00000ae0       ?Call@Callback@Nan@@QEBA?AV?$Local@VValue@v8@@@v8@@HQEAV34@@Z 0000000180001ae0 f i serialport.obj
 0001:00000b90       ?Call_@Callback@Nan@@AEBA?AV?$Local@VValue@v8@@@v8@@PEAVIsolate@4@V?$Local@VObject@v8@@@4@HQEAV34@@Z 0000000180001b90 f i serialport.obj
 0001:00000c50       ??1?$Persistent@VFunction@v8@@V?$NonCopyablePersistentTraits@VFunction@v8@@@2@@Nan@@QEAA@XZ 0000000180001c50 f i serialport.obj
 0001:00000c50       ??1?$Persistent@VObject@v8@@V?$NonCopyablePersistentTraits@VObject@v8@@@2@@Nan@@QEAA@XZ 0000000180001c50 f i serialport_win.obj
 0001:00000c70       ?getValueFromObject@@YA?AV?$Local@VValue@v8@@@v8@@V?$Local@VObject@v8@@@2@V?$basic_string@DU?$char_traits@D@std@@V?$allocator@D@2@@std@@@Z 0000000180001c70 f   serialport.obj
 0001:00000d60       ?getIntFromObject@@YAHV?$Local@VObject@v8@@@v8@@V?$basic_string@DU?$char_traits@D@std@@V?$allocator@D@2@@std@@@Z 0000000180001d60 f   serialport.obj
 0001:00000e40       ?getBoolFromObject@@YA_NV?$Local@VObject@v8@@@v8@@V?$basic_string@DU?$char_traits@D@std@@V?$allocator@D@2@@std@@@Z 0000000180001e40 f   serialport.obj
 0001:00000f20       ?getStringFromObj@@YA?AV?$Local@VString@v8@@@v8@@V?$Local@VObject@v8@@@2@V?$basic_string@DU?$char_traits@D@std@@V?$allocator@D@2@@std@@@Z 0000000180001f20 f   serialport.obj
 0001:00001000       ?getDoubleFromObject@@YANV?$Local@VObject@v8@@@v8@@V?$basic_string@DU?$char_traits@D@std@@V?$allocator@D@2@@std@@@Z 0000000180002000 f   serialport.obj
 0001:000010e0       ?Open@@YAXAEBV?$FunctionCallbackInfo@VValue@v8@@@Nan@@@Z 00000001800020e0 f   serialport.obj
 0001:00001610       ?EIO_AfterOpen@@YAXPEAUuv_work_s@@@Z 0000000180002610 f   serialport.obj
 0001:00001770       ?Update@@YAXAEBV?$FunctionCallbackInfo@VValue@v8@@@Nan@@@Z 0000000180002770 f   serialport.obj
 0001:00001a50       ?EIO_AfterUpdate@@YAXPEAUuv_work_s@@@Z 0000000180002a50 f   serialport.obj
 0001:00001b50       ?Close@@YAXAEBV?$FunctionCallbackInfo@VValue@v8@@@Nan@@@Z 0000000180002b50 f   serialport.obj
 0001:00001d00       ?EIO_AfterFlush@@YAXPEAUuv_work_s@@@Z 0000000180002d00 f   serialport.obj
 0001:00001d00       ?EIO_AfterClose@@YAXPEAUuv_work_s@@@Z 0000000180002d00 f   serialport.obj
 0001:00001d00       ?EIO_AfterDrain@@YAXPEAUuv_work_s@@@Z 0000000180002d00 f   serialport.obj
 0001:00001e00       ?Flush@@YAXAEBV?$FunctionCallbackInfo@VValue@v8@@@Nan@@@Z 0000000180002e00 f   serialport.obj
 0001:00001fa0       ?Set@@YAXAEBV?$FunctionCallbackInfo@VValue@v8@@@Nan@@@Z 0000000180002fa0 f   serialport.obj
 0001:000022f0       ?EIO_AfterSet@@YAXPEAUuv_work_s@@@Z 00000001800032f0 f   serialport.obj
 0001:000023f0       ?Get@@YAXAEBV?$FunctionCallbackInfo@VValue@v8@@@Nan@@@Z 00000001800033f0 f   serialport.obj
 0001:000025a0       ?EIO_AfterGet@@YAXPEAUuv_work_s@@@Z 00000001800035a0 f   serialport.obj
 0001:00002810       ?Drain@@YAXAEBV?$FunctionCallbackInfo@VValue@v8@@@Nan@@@Z 0000000180003810 f   serialport.obj
 0001:000029b0       ?ToParityEnum@@YA?AW4SerialPortParity@@AEBV?$Local@VString@v8@@@v8@@@Z 00000001800039b0 f i serialport.obj
 0001:00002af0       init                       0000000180003af0 f   serialport.obj
 0001:000030d0       ??1?$basic_string@DU?$char_traits@D@std@@V?$allocator@D@2@@std@@QEAA@XZ 00000001800040d0 f i serialport.obj
 0001:00003110       ?assign@?$basic_string@DU?$char_traits@D@std@@V?$allocator@D@2@@std@@QEAAAEAV12@AEBV12@_K1@Z 0000000180004110 f i serialport.obj
 0001:00003240       ?assign@?$basic_string@DU?$char_traits@D@std@@V?$allocator@D@2@@std@@QEAAAEAV12@PEBD_K@Z 0000000180004240 f i serialport.obj
 0001:00003380       ?erase@?$basic_string@DU?$char_traits@D@std@@V?$allocator@D@2@@std@@QEAAAEAV12@_K0@Z 0000000180004380 f i serialport.obj
 0001:00003450       ?_Copy@?$basic_string@DU?$char_traits@D@std@@V?$allocator@D@2@@std@@QEAAX_K0@Z 0000000180004450 f i serialport.obj
 0001:00003550       ??$New@VString@v8@@V?$basic_string@DU?$char_traits@D@std@@V?$allocator@D@2@@std@@@Nan@@YA?AV?$MaybeLocal@VString@v8@@@v8@@V?$basic_string@DU?$char_traits@D@std@@V?$allocator@D@2@@std@@@Z 0000000180004550 f i serialport.obj
 0001:00003620       ??$SetMethodAux@V?$Local@VObject@v8@@@v8@@@imp@Nan@@YAXV?$Local@VObject@v8@@@v8@@V?$Local@VString@v8@@@3@V?$Local@VFunctionTemplate@v8@@@3@ZZ 0000000180004620 f i serialport.obj
 0001:00003670       ?Set@Nan@@YA?AV?$Maybe@_N@v8@@V?$Local@VObject@v8@@@3@V?$Local@VValue@v8@@@3@1@Z 0000000180004670 f i serialport_win.obj
 0001:00003700       ?Set@Nan@@YA?AV?$Maybe@_N@v8@@V?$Local@VObject@v8@@@3@IV?$Local@VValue@v8@@@3@@Z 0000000180004700 f i serialport_win.obj
 0001:00003790       ?convert@?$ToFactory@VInteger@v8@@@imp@Nan@@SA?AV?$MaybeLocal@VInteger@v8@@@v8@@V?$Local@VValue@v8@@@5@@Z 0000000180004790 f i serialport_win.obj
 0001:00003830       ?Error@Nan@@YA?AV?$Local@VValue@v8@@@v8@@PEBD@Z 0000000180004830 f i serialport_win.obj
 0001:000038e0       ?ErrorCodeToString@@YAXPEBDHPEAD@Z 00000001800048e0 f   serialport_win.obj
 0001:00003970       ?EIO_Open@@YAXPEAUuv_work_s@@@Z 0000000180004970 f   serialport_win.obj
 0001:00003ce0       ?EIO_Update@@YAXPEAUuv_work_s@@@Z 0000000180004ce0 f   serialport_win.obj
 0001:00003e20       ?EIO_Set@@YAXPEAUuv_work_s@@@Z 0000000180004e20 f   serialport_win.obj
 0001:00003f70       ?EIO_Get@@YAXPEAUuv_work_s@@@Z 0000000180004f70 f   serialport_win.obj
 0001:00004060       ?Write@@YAXAEBV?$FunctionCallbackInfo@VValue@v8@@@Nan@@@Z 0000000180005060 f   serialport_win.obj
 0001:00004300       ?EIO_Write@@YAXPEAUuv_work_s@@@Z 0000000180005300 f   serialport_win.obj
 0001:000044e0       ?EIO_AfterWrite@@YAXPEAUuv_work_s@@@Z 00000001800054e0 f   serialport_win.obj
 0001:000045f0       ?Read@@YAXAEBV?$FunctionCallbackInfo@VValue@v8@@@Nan@@@Z 00000001800055f0 f   serialport_win.obj
 0001:00004960       ?EIO_Read@@YAXPEAUuv_work_s@@@Z 0000000180005960 f   serialport_win.obj
 0001:00004a70       ?EIO_AfterRead@@YAXPEAUuv_work_s@@@Z 0000000180005a70 f   serialport_win.obj
 0001:00004b90       ?EIO_Close@@YAXPEAUuv_work_s@@@Z 0000000180005b90 f   serialport_win.obj
 0001:00004cd0       ?List@@YAXAEBV?$FunctionCallbackInfo@VValue@v8@@@Nan@@@Z 0000000180005cd0 f   serialport_win.obj
 0001:00004df0       ??0ListBaton@@QEAA@XZ      0000000180005df0 f i serialport_win.obj
 0001:00004e70       ?EIO_List@@YAXPEAUuv_work_s@@@Z 0000000180005e70 f   serialport_win.obj
 0001:00005430       ?setIfNotEmpty@@YAXV?$Local@VObject@v8@@@v8@@V?$basic_string@DU?$char_traits@D@std@@V?$allocator@D@2@@std@@PEBD@Z 0000000180006430 f   serialport_win.obj
 0001:00005560       ?EIO_AfterList@@YAXPEAUuv_work_s@@@Z 0000000180006560 f   serialport_win.obj
 0001:00005970       ??1ListResultItem@@QEAA@XZ 0000000180006970 f i serialport_win.obj
 0001:00005ab0       ?EIO_Flush@@YAXPEAUuv_work_s@@@Z 0000000180006ab0 f   serialport_win.obj
 0001:00005b70       ?EIO_Drain@@YAXPEAUuv_work_s@@@Z 0000000180006b70 f   serialport_win.obj
 0001:00005c20       ??1?$list@PEAUListResultItem@@V?$allocator@PEAUListResultItem@@@std@@@std@@QEAA@XZ 0000000180006c20 f i serialport_win.obj
 0001:00005c80       ??1?$_List_buy@PEAUListResultItem@@V?$allocator@PEAUListResultItem@@@std@@@std@@QEAA@XZ 0000000180006c80 f i serialport_win.obj
 0001:00005ca0       ??1?$_List_buy@HV?$allocator@H@std@@@std@@QEAA@XZ 0000000180006ca0 f i serialport_win.obj
 0001:00005cd0       ??1?$_List_alloc@$0A@U?$_List_base_types@PEAUListResultItem@@V?$allocator@PEAUListResultItem@@@std@@@std@@@std@@QEAA@XZ 0000000180006cd0 f i serialport_win.obj
 0001:00005ce0       ??1?$_List_alloc@$0A@U?$_List_base_types@HV?$allocator@H@std@@@std@@@std@@QEAA@XZ 0000000180006ce0 f i serialport_win.obj
 0001:00005cf0       ??0?$_Wrap_alloc@V?$allocator@U?$_List_node@HPEAX@std@@@std@@@std@@QEAA@XZ 0000000180006cf0 f i serialport_win.obj
 0001:00005d00       ??$_Buynode@AEBH@?$_List_buy@HV?$allocator@H@std@@@std@@QEAAPEAU?$_List_node@HPEAX@1@PEAU21@0AEBH@Z 0000000180006d00 f i serialport_win.obj
 0001:00005dec       __imp_load_node_module_register 0000000180006dec f   node:node.exe
 0001:00005df8       __tailMerge_node_exe       0000000180006df8 f i node:node.exe
 0001:00005e71       __imp_load_?MakeCallback@node@@YA?AV?$Local@VValue@v8@@@v8@@PEAVIsolate@3@V?$Local@VObject@v8@@@3@V?$Local@VFunction@v8@@@3@HPEAV23@@Z 0000000180006e71 f   node:node.exe
 0001:00005e7d       __imp_load_uv_default_loop 0000000180006e7d f   node:node.exe
 0001:00005e89       __imp_load_?Global@Context@v8@@QEAA?AV?$Local@VObject@v8@@@2@XZ 0000000180006e89 f   node:node.exe
 0001:00005e95       __imp_load_?ToLocalEmpty@V8@v8@@CAXXZ 0000000180006e95 f   node:node.exe
 0001:00005ea1       __imp_load_?FromJustIsNothing@V8@v8@@CAXXZ 0000000180006ea1 f   node:node.exe
 0001:00005ead       __imp_load_?DisposeGlobal@V8@v8@@CAXPEAPEAVObject@internal@2@@Z 0000000180006ead f   node:node.exe
 0001:00005eb9       __imp_load_?GlobalizeReference@V8@v8@@CAPEAPEAVObject@internal@2@PEAVIsolate@42@PEAPEAV342@@Z 0000000180006eb9 f   node:node.exe
 0001:00005ec5       __imp_load_?Escape@EscapableHandleScope@v8@@AEAAPEAPEAVObject@internal@2@PEAPEAV342@@Z 0000000180006ec5 f   node:node.exe
 0001:00005ed1       __imp_load_??0EscapableHandleScope@v8@@QEAA@PEAVIsolate@1@@Z 0000000180006ed1 f   node:node.exe
 0001:00005edd       __imp_load_?Int32Value@Value@v8@@QEBA?AV?$Maybe@H@2@V?$Local@VContext@v8@@@2@@Z 0000000180006edd f   node:node.exe
 0001:00005ee9       __imp_load_?NumberValue@Value@v8@@QEBA?AV?$Maybe@N@2@V?$Local@VContext@v8@@@2@@Z 0000000180006ee9 f   node:node.exe
 0001:00005ef5       __imp_load_?ToInt32@Value@v8@@QEBA?AV?$MaybeLocal@VInt32@v8@@@2@V?$Local@VContext@v8@@@2@@Z 0000000180006ef5 f   node:node.exe
 0001:00005f01       __imp_load_?ToString@Value@v8@@QEBA?AV?$MaybeLocal@VString@v8@@@2@V?$Local@VContext@v8@@@2@@Z 0000000180006f01 f   node:node.exe
 0001:00005f0d       __imp_load_?ToBoolean@Value@v8@@QEBA?AV?$MaybeLocal@VBoolean@v8@@@2@V?$Local@VContext@v8@@@2@@Z 0000000180006f0d f   node:node.exe
 0001:00005f19       __imp_load_?IsInt32@Value@v8@@QEBA_NXZ 0000000180006f19 f   node:node.exe
 0001:00005f25       __imp_load_?IsObject@Value@v8@@QEBA_NXZ 0000000180006f25 f   node:node.exe
 0001:00005f31       __imp_load_?IsFunction@Value@v8@@QEBA_NXZ 0000000180006f31 f   node:node.exe
 0001:00005f3d       __imp_load_?SetClassName@FunctionTemplate@v8@@QEAAXV?$Local@VString@v8@@@2@@Z 0000000180006f3d f   node:node.exe
 0001:00005f49       __imp_load_?GetFunction@FunctionTemplate@v8@@QEAA?AV?$MaybeLocal@VFunction@v8@@@2@V?$Local@VContext@v8@@@2@@Z 0000000180006f49 f   node:node.exe
 0001:00005f55       __imp_load_?New@FunctionTemplate@v8@@SA?AV?$Local@VFunctionTemplate@v8@@@2@PEAVIsolate@2@P6AXAEBV?$FunctionCallbackInfo@VValue@v8@@@2@@ZV?$Local@VValue@v8@@@2@V?$Local@VSignature@v8@@@2@HW4ConstructorBehavior@2@@Z 0000000180006f55 f   node:node.exe
 0001:00005f61       __imp_load_?Error@Exception@v8@@SA?AV?$Local@VValue@v8@@@2@V?$Local@VString@v8@@@2@@Z 0000000180006f61 f   node:node.exe
 0001:00005f6d       __imp_load_?TypeError@Exception@v8@@SA?AV?$Local@VValue@v8@@@2@V?$Local@VString@v8@@@2@@Z 0000000180006f6d f   node:node.exe
 0001:00005f79       __imp_load_??1Utf8Value@String@v8@@QEAA@XZ 0000000180006f79 f   node:node.exe
 0001:00005f85       __imp_load_??0Utf8Value@String@v8@@QEAA@V?$Local@VValue@v8@@@2@@Z 0000000180006f85 f   node:node.exe
 0001:00005f91       __imp_load_?NewFromUtf8@String@v8@@SA?AV?$MaybeLocal@VString@v8@@@2@PEAVIsolate@2@PEBDW4NewStringType@2@H@Z 0000000180006f91 f   node:node.exe
 0001:00005f9d       __imp_load_?WriteUtf8@String@v8@@QEBAHPEADHPEAHH@Z 0000000180006f9d f   node:node.exe
 0001:00005fa9       __imp_load_?Length@String@v8@@QEBAHXZ 0000000180006fa9 f   node:node.exe
 0001:00005fb5       __imp_load_?CreateHandle@HandleScope@v8@@KAPEAPEAVObject@internal@2@PEAVIsolate@42@PEAV342@@Z 0000000180006fb5 f   node:node.exe
 0001:00005fc1       __imp_load_?CreateHandle@HandleScope@v8@@CAPEAPEAVObject@internal@2@PEAVHeapObject@42@PEAV342@@Z 0000000180006fc1 f   node:node.exe
 0001:00005fcd       __imp_load_??1HandleScope@v8@@QEAA@XZ 0000000180006fcd f   node:node.exe
 0001:00005fd9       __imp_load_??0HandleScope@v8@@QEAA@PEAVIsolate@1@@Z 0000000180006fd9 f   node:node.exe
 0001:00005fe5       __imp_load_?Value@Boolean@v8@@QEBA_NXZ 0000000180006fe5 f   node:node.exe
 0001:00005ff1       __imp_load_?SlowGetInternalField@Object@v8@@AEAA?AV?$Local@VValue@v8@@@2@H@Z 0000000180006ff1 f   node:node.exe
 0001:00005ffd       __imp_load_?New@Object@v8@@SA?AV?$Local@VObject@v8@@@2@PEAVIsolate@2@@Z 0000000180006ffd f   node:node.exe
 0001:00006009       __imp_load_?SetInternalField@Object@v8@@QEAAXHV?$Local@VValue@v8@@@2@@Z 0000000180007009 f   node:node.exe
 0001:00006015       __imp_load_?Has@Object@v8@@QEAA?AV?$Maybe@_N@2@V?$Local@VContext@v8@@@2@V?$Local@VValue@v8@@@2@@Z 0000000180007015 f   node:node.exe
 0001:00006021       __imp_load_?Get@Object@v8@@QEAA?AV?$MaybeLocal@VValue@v8@@@2@V?$Local@VContext@v8@@@2@V?$Local@VValue@v8@@@2@@Z 0000000180007021 f   node:node.exe
 0001:0000602d       __imp_load_?Set@Object@v8@@QEAA_NV?$Local@VValue@v8@@@2@0@Z 000000018000702d f   node:node.exe
 0001:00006039       __imp_load_?Value@Int32@v8@@QEBAHXZ 0000000180007039 f   node:node.exe
 0001:00006045       __imp_load_?SetInternalFieldCount@ObjectTemplate@v8@@QEAAXH@Z 0000000180007045 f   node:node.exe
 0001:00006051       __imp_load_?NewInstance@ObjectTemplate@v8@@QEAA?AV?$MaybeLocal@VObject@v8@@@2@V?$Local@VContext@v8@@@2@@Z 0000000180007051 f   node:node.exe
 0001:0000605d       __imp_load_?New@ObjectTemplate@v8@@SA?AV?$Local@VObjectTemplate@v8@@@2@PEAVIsolate@2@V?$Local@VFunctionTemplate@v8@@@2@@Z 000000018000705d f   node:node.exe
 0001:00006069       __imp_load_?New@Integer@v8@@SA?AV?$Local@VInteger@v8@@@2@PEAVIsolate@2@H@Z 0000000180007069 f   node:node.exe
 0001:00006075       __imp_load_?ThrowException@Isolate@v8@@QEAA?AV?$Local@VValue@v8@@@2@V32@@Z 0000000180007075 f   node:node.exe
 0001:00006081       __imp_load_?GetCurrentContext@Isolate@v8@@QEAA?AV?$Local@VContext@v8@@@2@XZ 0000000180007081 f   node:node.exe
 0001:0000608d       __imp_load_?GetCurrent@Isolate@v8@@SAPEAV12@XZ 000000018000708d f   node:node.exe
 0001:00006099       __imp_load_?Value@External@v8@@QEBAPEAXXZ 0000000180007099 f   node:node.exe
 0001:000060a5       __imp_load_?New@External@v8@@SA?AV?$Local@VExternal@v8@@@2@PEAVIsolate@2@PEAX@Z 00000001800070a5 f   node:node.exe
 0001:000060b1       __imp_load_uv_queue_work   00000001800070b1 f   node:node.exe
 0001:000060bd       __imp_load_?ToObject@Value@v8@@QEBA?AV?$Local@VObject@v8@@@2@XZ 00000001800070bd f   node:node.exe
 0001:000060c9       __imp_load_?ToString@Value@v8@@QEBA?AV?$Local@VString@v8@@@2@XZ 00000001800070c9 f   node:node.exe
 0001:000060d5       __imp_load_??1EscapableHandleScope@v8@@QEAA@XZ 00000001800070d5 f   node:node.exe
 0001:000060e1       __imp_load_?Length@Buffer@node@@YA_KV?$Local@VObject@v8@@@v8@@@Z 00000001800070e1 f   node:node.exe
 0001:000060ed       __imp_load_?Data@Buffer@node@@YAPEADV?$Local@VObject@v8@@@v8@@@Z 00000001800070ed f   node:node.exe
 0001:000060f9       __imp_load_?HasInstance@Buffer@node@@YA_NV?$Local@VValue@v8@@@v8@@@Z 00000001800070f9 f   node:node.exe
 0001:00006105       __imp_load_?ToInteger@Value@v8@@QEBA?AV?$MaybeLocal@VInteger@v8@@@2@V?$Local@VContext@v8@@@2@@Z 0000000180007105 f   node:node.exe
 0001:00006111       __imp_load_?New@Array@v8@@SA?AV?$Local@VArray@v8@@@2@PEAVIsolate@2@H@Z 0000000180007111 f   node:node.exe
 0001:0000611d       __imp_load_?Set@Object@v8@@QEAA?AV?$Maybe@_N@2@V?$Local@VContext@v8@@@2@V?$Local@VValue@v8@@@2@1@Z 000000018000711d f   node:node.exe
 0001:00006129       __imp_load_?Set@Object@v8@@QEAA?AV?$Maybe@_N@2@V?$Local@VContext@v8@@@2@IV?$Local@VValue@v8@@@2@@Z 0000000180007129 f   node:node.exe
 0001:00006138       ??0bad_alloc@std@@QEAA@AEBV01@@Z 0000000180007138 f i libcpmt:xthrow.obj
 0001:0000615c       ??0length_error@std@@QEAA@AEBV01@@Z 000000018000715c f i libcpmt:xthrow.obj
 0001:00006180       ??0logic_error@std@@QEAA@AEBV01@@Z 0000000180007180 f i libcpmt:xthrow.obj
 0001:000061a4       ??0out_of_range@std@@QEAA@AEBV01@@Z 00000001800071a4 f i libcpmt:xthrow.obj
 0001:000061c8       ??1bad_alloc@std@@UEAA@XZ  00000001800071c8 f i libcpmt:xthrow.obj
 0001:000061d8       ??1out_of_range@std@@UEAA@XZ 00000001800071d8 f i libcpmt:xthrow.obj
 0001:000061d8       ??1length_error@std@@UEAA@XZ 00000001800071d8 f i libcpmt:xthrow.obj
 0001:000061e0       ??_Gbad_alloc@std@@UEAAPEAXI@Z 00000001800071e0 f i libcpmt:xthrow.obj
 0001:000061e0       ??_Ebad_alloc@std@@UEAAPEAXI@Z 00000001800071e0 f i libcpmt:xthrow.obj
 0001:0000621c       ??_Eout_of_range@std@@UEAAPEAXI@Z 000000018000721c f i libcpmt:xthrow.obj
 0001:0000621c       ??_Elength_error@std@@UEAAPEAXI@Z 000000018000721c f i libcpmt:xthrow.obj
 0001:0000621c       ??_Gout_of_range@std@@UEAAPEAXI@Z 000000018000721c f i libcpmt:xthrow.obj
 0001:0000621c       ??_Elogic_error@std@@UEAAPEAXI@Z 000000018000721c f i libcpmt:xthrow.obj
 0001:0000621c       ??_Glength_error@std@@UEAAPEAXI@Z 000000018000721c f i libcpmt:xthrow.obj
 0001:0000621c       ??_Glogic_error@std@@UEAAPEAXI@Z 000000018000721c f i libcpmt:xthrow.obj
 0001:0000624c       ?_Xbad_alloc@std@@YAXXZ    000000018000724c f   libcpmt:xthrow.obj
 0001:00006290       ?_Xlength_error@std@@YAXPEBD@Z 0000000180007290 f   libcpmt:xthrow.obj
 0001:000062c8       ?_Xout_of_range@std@@YAXPEBD@Z 00000001800072c8 f   libcpmt:xthrow.obj
 0001:00006310       __security_check_cookie    0000000180007310 f   LIBCMT:amdsecgs.obj
 0001:00006340       memmove                    0000000180007340 f   LIBCMT:memcpy.obj
 0001:00006340       memcpy                     0000000180007340 f   LIBCMT:memcpy.obj
 0001:000068a8       free                       00000001800078a8 f   LIBCMT:free.obj
 0001:000068e8       malloc                     00000001800078e8 f   LIBCMT:malloc.obj
 0001:000069a0       _wassert                   00000001800079a0 f   LIBCMT:wassert.obj
 0001:00007304       __onexitinit               0000000180008304 f   LIBCMT:onexit.obj
 0001:00007348       _onexit                    0000000180008348 f   LIBCMT:onexit.obj
 0001:00007454       atexit                     0000000180008454 f   LIBCMT:onexit.obj
 0001:0000746c       ??3@YAXPEAX@Z              000000018000846c f   LIBCMT:delete.obj
 0001:00007474       ??2@YAPEAX_K@Z             0000000180008474 f   LIBCMT:new.obj
 0001:000074e0       _snprintf_s                00000001800084e0 f   LIBCMT:sprintf.obj
 0001:00007504       strstr                     0000000180008504 f   LIBCMT:strstr.obj
 0001:00007700       strncpy                    0000000180008700 f   LIBCMT:strncpy.obj
 0001:00007864       __raise_securityfailure    0000000180008864 f   LIBCMT:gs_report.obj
 0001:000078b0       __report_gsfailure         00000001800088b0 f   LIBCMT:gs_report.obj
 0001:00007984       __report_rangecheckfailure 0000000180008984 f   LIBCMT:gs_report.obj
 0001:00007998       __report_securityfailure   0000000180008998 f   LIBCMT:gs_report.obj
 0001:00007a34       strncpy_s                  0000000180008a34 f   LIBCMT:strncpy_s.obj
 0001:00007af0       ??0_LocaleUpdate@@QEAA@PEAUlocaleinfo_struct@@@Z 0000000180008af0 f i LIBCMT:stricmp.obj
 0001:00007b98       __ascii_stricmp            0000000180008b98 f   LIBCMT:stricmp.obj
 0001:00007bd4       _stricmp                   0000000180008bd4 f   LIBCMT:stricmp.obj
 0001:00007c1c       _stricmp_l                 0000000180008c1c f   LIBCMT:stricmp.obj
 0001:00007cd0       _CRT_INIT                  0000000180008cd0 f   LIBCMT:dllcrt0.obj
 0001:00007e30       _DllMainCRTStartup         0000000180008e30 f   LIBCMT:dllcrt0.obj
 0001:00007fa0       strlen                     0000000180008fa0 f   LIBCMT:strlen.obj
 0001:00008048       _CxxThrowException         0000000180009048 f   LIBCMT:throw.obj
 0001:00008110       ?_GetEstablisherFrame@@YAPEA_KPEA_KPEAU_xDISPATCHER_CONTEXT@@PEBU_s_FuncInfo@@0@Z 0000000180009110 f   LIBCMT:trnsctrl.obj
 0001:000081dc       ?_GetRangeOfTrysToCheck@@YAPEBU_s_TryBlockMapEntry@@PEA_KPEBU_s_FuncInfo@@HHPEAI2PEAU_xDISPATCHER_CONTEXT@@@Z 00000001800091dc f   LIBCMT:trnsctrl.obj
 0001:00008308       ?__FrameUnwindToEmptyState@@YAXPEA_KPEAU_xDISPATCHER_CONTEXT@@PEBU_s_FuncInfo@@@Z 0000000180009308 f   LIBCMT:trnsctrl.obj
 0001:0000839c       ?__SehTransFilter@@YAHPEAU_EXCEPTION_POINTERS@@PEAUEHExceptionRecord@@PEA_KPEAU_CONTEXT@@PEAU_xDISPATCHER_CONTEXT@@PEBU_s_FuncInfo@@PEAH@Z 000000018000939c f   LIBCMT:trnsctrl.obj
 0001:00008440       _CallSETranslator          0000000180009440 f   LIBCMT:trnsctrl.obj
 0001:00008494       _CreateFrameInfo           0000000180009494 f   LIBCMT:trnsctrl.obj
 0001:000084d8       _FindAndUnlinkFrame        00000001800094d8 f   LIBCMT:trnsctrl.obj
 0001:00008538       _GetImageBase              0000000180009538 f   LIBCMT:trnsctrl.obj
 0001:00008550       _GetThrowImageBase         0000000180009550 f   LIBCMT:trnsctrl.obj
 0001:00008568       _IsExceptionObjectToBeDestroyed 0000000180009568 f   LIBCMT:trnsctrl.obj
 0001:0000859c       _SetImageBase              000000018000959c f   LIBCMT:trnsctrl.obj
 0001:000085b8       _SetThrowImageBase         00000001800095b8 f   LIBCMT:trnsctrl.obj
 0001:000085d4       _UnwindNestedFrames        00000001800095d4 f   LIBCMT:trnsctrl.obj
 0001:000086f8       __CxxFrameHandler3         00000001800096f8 f   LIBCMT:trnsctrl.obj
 0001:00008780       ??8type_info@@QEBA_NAEBV0@@Z 0000000180009780 f   LIBCMT:typinfo.obj
 0001:000087a0       ??_Etype_info@@UEAAPEAXI@Z 00000001800097a0 f i LIBCMT:typinfo.obj
 0001:000087a0       ??_Gtype_info@@UEAAPEAXI@Z 00000001800097a0 f i LIBCMT:typinfo.obj
 0001:000087dc       _fpmath                    00000001800097dc f   LIBCMT:fpinit.obj
 0001:000087e4       _cfltcvt_init              00000001800097e4 f   LIBCMT:fpinit.obj
 0001:0000886c       ??0exception@std@@QEAA@AEBQEBD@Z 000000018000986c f   LIBCMT:stdexcpt.obj
 0001:0000889c       ??0exception@std@@QEAA@AEBQEBDH@Z 000000018000989c f   LIBCMT:stdexcpt.obj
 0001:000088b8       ??0exception@std@@QEAA@AEBV01@@Z 00000001800098b8 f   LIBCMT:stdexcpt.obj
 0001:000088e4       ??1exception@std@@UEAA@XZ  00000001800098e4 f   LIBCMT:stdexcpt.obj
 0001:000088f4       ??4exception@std@@QEAAAEAV01@AEBV01@@Z 00000001800098f4 f   LIBCMT:stdexcpt.obj
 0001:00008938       ??_Gexception@std@@UEAAPEAXI@Z 0000000180009938 f i LIBCMT:stdexcpt.obj
 0001:00008938       ??_Eexception@std@@UEAAPEAXI@Z 0000000180009938 f i LIBCMT:stdexcpt.obj
 0001:00008974       ?_Copy_str@exception@std@@AEAAXPEBD@Z 0000000180009974 f   LIBCMT:stdexcpt.obj
 0001:000089d0       ?_Tidy@exception@std@@AEAAXXZ 00000001800099d0 f   LIBCMT:stdexcpt.obj
 0001:000089f8       ?what@exception@std@@UEBAPEBDXZ 00000001800099f8 f   LIBCMT:stdexcpt.obj
 0001:00008a0c       __isa_available_init       0000000180009a0c f   LIBCMT:cpu_disp.obj
 0001:00008bb0       __doserrno                 0000000180009bb0 f   LIBCMT:dosmap.obj
 0001:00008bd0       _dosmaperr                 0000000180009bd0 f   LIBCMT:dosmap.obj
 0001:00008c20       _errno                     0000000180009c20 f   LIBCMT:dosmap.obj
 0001:00008c40       _get_errno_from_oserr      0000000180009c40 f   LIBCMT:dosmap.obj
 0001:00008c90       _heap_init                 0000000180009c90 f   LIBCMT:heapinit.obj
 0001:00008cb0       _heap_term                 0000000180009cb0 f   LIBCMT:heapinit.obj
 0001:00008cbc       _callnewh                  0000000180009cbc f   LIBCMT:handler.obj
 0001:00008cf0       _initp_heap_handler        0000000180009cf0 f   LIBCMT:handler.obj
 0001:00008cf8       __crtCorExitProcess        0000000180009cf8 f   LIBCMT:crt0dat.obj
 0001:00008d3c       __crtExitProcess           0000000180009d3c f   LIBCMT:crt0dat.obj
 0001:00008d54       __freeCrtMemory            0000000180009d54 f   LIBCMT:crt0dat.obj
 0001:00008e9c       _amsg_exit                 0000000180009e9c f   LIBCMT:crt0dat.obj
 0001:00008ec4       _cexit                     0000000180009ec4 f   LIBCMT:crt0dat.obj
 0001:00008ed4       _cinit                     0000000180009ed4 f   LIBCMT:crt0dat.obj
 0001:00008f6c       _exit                      0000000180009f6c f   LIBCMT:crt0dat.obj
 0001:00008f78       _init_pointers             0000000180009f78 f   LIBCMT:crt0dat.obj
 0001:00009024       _initterm_e                000000018000a024 f   LIBCMT:crt0dat.obj
 0001:00009060       _lockexit                  000000018000a060 f   LIBCMT:crt0dat.obj
 0001:0000906c       _unlockexit                000000018000a06c f   LIBCMT:crt0dat.obj
 0001:00009210       _FF_MSGBANNER              000000018000a210 f   LIBCMT:crt0msg.obj
 0001:00009254       _GET_RTERRMSG              000000018000a254 f   LIBCMT:crt0msg.obj
 0001:00009284       _NMSG_WRITE                000000018000a284 f   LIBCMT:crt0msg.obj
 0001:000094f4       _call_reportfault          000000018000a4f4 f   LIBCMT:invarg.obj
 0001:000095e8       _initp_misc_invarg         000000018000a5e8 f   LIBCMT:invarg.obj
 0001:000095f0       _invalid_parameter         000000018000a5f0 f   LIBCMT:invarg.obj
 0001:00009658       _invalid_parameter_noinfo  000000018000a658 f   LIBCMT:invarg.obj
 0001:00009678       _invoke_watson             000000018000a678 f   LIBCMT:invarg.obj
 0001:000096b4       memcpy_s                   000000018000a6b4 f   LIBCMT:memcpy_s.obj
 0001:0000973c       wcscat_s                   000000018000a73c f   LIBCMT:wcscat_s.obj
 0001:000097c4       wcscpy_s                   000000018000a7c4 f   LIBCMT:wcscpy_s.obj
 0001:00009830       wcslen                     000000018000a830 f   LIBCMT:wcslen.obj
 0001:0000984c       wcsncat_s                  000000018000a84c f   LIBCMT:wcsncat_s.obj
 0001:00009934       abort                      000000018000a934 f   LIBCMT:abort.obj
 0001:0000998c       _set_error_mode            000000018000a98c f   LIBCMT:errmode.obj
 0001:000099cc       _itow_s                    000000018000a9cc f   LIBCMT:xtows.obj
 0001:00009b04       __initstdio                000000018000ab04 f   LIBCMT:_file.obj
 0001:00009b9c       __endstdio                 000000018000ab9c f   LIBCMT:_file.obj
 0001:00009bcc       __iob_func                 000000018000abcc f   LIBCMT:_file.obj
 0001:00009bd4       _lock_file                 000000018000abd4 f   LIBCMT:_file.obj
 0001:00009c3c       _lock_file2                000000018000ac3c f   LIBCMT:_file.obj
 0001:00009c70       _unlock_file               000000018000ac70 f   LIBCMT:_file.obj
 0001:00009cc0       _unlock_file2              000000018000acc0 f   LIBCMT:_file.obj
 0001:00009ce0       _fflush_nolock             000000018000ace0 f   LIBCMT:fflush.obj
 0001:00009d2c       _flush                     000000018000ad2c f   LIBCMT:fflush.obj
 0001:00009da8       _flushall                  000000018000ada8 f   LIBCMT:fflush.obj
 0001:00009db4       fflush                     000000018000adb4 f   LIBCMT:fflush.obj
 0001:00009ee0       setvbuf                    000000018000aee0 f   LIBCMT:setvbuf.obj
 0001:00009ff8       fwprintf                   000000018000aff8 f   LIBCMT:fwprintf.obj
 0001:0000a08c       _vswprintf_c_l             000000018000b08c f   LIBCMT:vswprnc.obj
 0001:0000a0c4       _vswprintf_helper          000000018000b0c4 f   LIBCMT:vswprnc.obj
 0001:0000a1e0       __get_sigabrt              000000018000b1e0 f   LIBCMT:winsig.obj
 0001:0000a1f0       _initp_misc_winsig         000000018000b1f0 f   LIBCMT:winsig.obj
 0001:0000a210       raise                      000000018000b210 f   LIBCMT:winsig.obj
 0001:0000a444       __crtMessageBoxW           000000018000b444 f   LIBCMT:crtmboxw.obj
 0001:0000a6b8       __GSHandlerCheck           000000018000b6b8 f   LIBCMT:gshandler.obj
 0001:0000a6d8       __GSHandlerCheckCommon     000000018000b6d8 f   LIBCMT:gshandler.obj
 0001:0000a73c       _msize                     000000018000b73c f   LIBCMT:msize.obj
 0001:0000a778       _calloc_crt                000000018000b778 f   LIBCMT:crtheap.obj
 0001:0000a7f8       _malloc_crt                000000018000b7f8 f   LIBCMT:crtheap.obj
 0001:0000a874       _realloc_crt               000000018000b874 f   LIBCMT:crtheap.obj
 0001:0000a8f8       __C_specific_handler       000000018000b8f8 f   LIBCMT:chandler.obj
 0001:0000aadc       _initp_misc_purevirt       000000018000badc f   LIBCMT:inithelp.obj
 0001:0000aae4       _flsbuf                    000000018000bae4 f   LIBCMT:_flsbuf.obj
 0001:0000ac70       _vsnprintf_helper          000000018000bc70 f   LIBCMT:vsnprnc.obj
 0001:0000ad58       _vsnprintf_s_l             000000018000bd58 f   LIBCMT:vsnprnc.obj
 0001:0000aeb0       memset                     000000018000beb0 f   LIBCMT:memset.obj
 0001:0000b0dc       __crt_debugger_hook        000000018000c0dc f   LIBCMT:dbghook.obj
 0001:0000b0e4       __crtCaptureCurrentContext 000000018000c0e4 f   LIBCMT:winapisupp.obj
 0001:0000b154       __crtCapturePreviousContext 000000018000c154 f   LIBCMT:winapisupp.obj
 0001:0000b1c8       __crtFlsAlloc              000000018000c1c8 f   LIBCMT:winapisupp.obj
 0001:0000b1e4       __crtFlsFree               000000018000c1e4 f   LIBCMT:winapisupp.obj
 0001:0000b200       __crtFlsGetValue           000000018000c200 f   LIBCMT:winapisupp.obj
 0001:0000b21c       __crtFlsSetValue           000000018000c21c f   LIBCMT:winapisupp.obj
 0001:0000b238       __crtInitializeCriticalSectionEx 000000018000c238 f   LIBCMT:winapisupp.obj
 0001:0000b264       __crtIsPackagedApp         000000018000c264 f   LIBCMT:winapisupp.obj
 0001:0000b2b0       __crtLoadWinApiPointers    000000018000c2b0 f   LIBCMT:winapisupp.obj
 0001:0000b6ac       __crtSleep                 000000018000c6ac f   LIBCMT:winapisupp.obj
 0001:0000b6b4       __crtTerminateProcess      000000018000c6b4 f   LIBCMT:winapisupp.obj
 0001:0000b6d4       __crtUnhandledException    000000018000c6d4 f   LIBCMT:winapisupp.obj
 0001:0000b6f4       __addlocaleref             000000018000c6f4 f   LIBCMT:localref.obj
 0001:0000b780       __freetlocinfo             000000018000c780 f   LIBCMT:localref.obj
 0001:0000b918       __removelocaleref          000000018000c918 f   LIBCMT:localref.obj
 0001:0000b9bc       __updatetlocinfo           000000018000c9bc f   LIBCMT:localref.obj
 0001:0000ba34       _updatetlocinfoEx_nolock   000000018000ca34 f   LIBCMT:localref.obj
 0001:0000ba98       __initmbctable             000000018000ca98 f   LIBCMT:mbctype.obj
 0001:0000bdb4       __updatetmbcinfo           000000018000cdb4 f   LIBCMT:mbctype.obj
 0001:0000be70       _setmbcp                   000000018000ce70 f   LIBCMT:mbctype.obj
 0001:0000c0b4       _setmbcp_nolock            000000018000d0b4 f   LIBCMT:mbctype.obj
 0001:0000c364       _tolower_l                 000000018000d364 f   LIBCMT:tolower.obj
 0001:0000c4b8       tolower                    000000018000d4b8 f   LIBCMT:tolower.obj
 0001:0000c4d8       _freefls                   000000018000d4d8 f   LIBCMT:tidtable.obj
 0001:0000c60c       _freeptd                   000000018000d60c f   LIBCMT:tidtable.obj
 0001:0000c648       _getptd                    000000018000d648 f   LIBCMT:tidtable.obj
 0001:0000c66c       _getptd_noexit             000000018000d66c f   LIBCMT:tidtable.obj
 0001:0000c6f0       _initptd                   000000018000d6f0 f   LIBCMT:tidtable.obj
 0001:0000c7b4       _mtinit                    000000018000d7b4 f   LIBCMT:tidtable.obj
 0001:0000c834       _mtterm                    000000018000d834 f   LIBCMT:tidtable.obj
 0001:0000c858       _locterm                   000000018000d858 f   LIBCMT:wsetloca.obj
 0001:0000c8a0       _XcptFilter                000000018000d8a0 f   LIBCMT:winxfltr.obj
 0001:0000ca6c       __CppXcptFilter            000000018000da6c f   LIBCMT:winxfltr.obj
 0001:0000ca80       _ioinit                    000000018000da80 f   LIBCMT:ioinit.obj
 0001:0000cdb0       _ioterm                    000000018000ddb0 f   LIBCMT:ioinit.obj
 0001:0000ce24       _setargv                   000000018000de24 f   LIBCMT:stdargv.obj
 0001:0000d0e0       _setenvp                   000000018000e0e0 f   LIBCMT:stdenvp.obj
 0001:0000d214       __security_init_cookie     000000018000e214 f   LIBCMT:gs_support.obj
 0001:0000d2c0       DllMain                    000000018000e2c0 f   LIBCMT:dllmain.obj
 0001:0000d2c8       __crtGetEnvironmentStringsA 000000018000e2c8 f   LIBCMT:a_env.obj
 0001:0000d3bc       _RTC_Initialize            000000018000e3bc f   LIBCMT:initsect.obj
 0001:0000d3f4       _RTC_Terminate             000000018000e3f4 f   LIBCMT:initsect.obj
 0001:0000d42c       __DestructExceptionObject  000000018000e42c f   LIBCMT:frame.obj
 0001:0000d49c       ??0bad_exception@std@@QEAA@AEBV01@@Z 000000018000e49c f i LIBCMT:frame.obj
 0001:0000d4c0       ??1bad_exception@std@@UEAA@XZ 000000018000e4c0 f i LIBCMT:frame.obj
 0001:0000d4d0       ??_Ebad_exception@std@@UEAAPEAXI@Z 000000018000e4d0 f i LIBCMT:frame.obj
 0001:0000d4d0       ??_Gbad_exception@std@@UEAAPEAXI@Z 000000018000e4d0 f i LIBCMT:frame.obj
 0001:0000ddc4       __AdjustPointer            000000018000edc4 f   LIBCMT:frame.obj
 0001:0000dde8       __BuildCatchObject         000000018000ede8 f   LIBCMT:frame.obj
 0001:0000dea0       __BuildCatchObjectHelper   000000018000eea0 f   LIBCMT:frame.obj
 0001:0000e0f0       __CxxCallCatchBlock        000000018000f0f0 f   LIBCMT:frame.obj
 0001:0000e2f4       __FrameUnwindFilter        000000018000f2f4 f   LIBCMT:frame.obj
 0001:0000e348       __FrameUnwindToState       000000018000f348 f   LIBCMT:frame.obj
 0001:0000e4dc       __InternalCxxFrameHandler  000000018000f4dc f   LIBCMT:frame.obj
 0001:0000e700       __TypeMatch                000000018000f700 f   LIBCMT:frame.obj
 0001:0000e830       ?__GetCurrentState@@YAHPEA_KPEAU_xDISPATCHER_CONTEXT@@PEBU_s_FuncInfo@@@Z 000000018000f830 f   LIBCMT:ehstate.obj
 0001:0000e858       ?__GetUnwindTryBlock@@YAHPEA_KPEAU_xDISPATCHER_CONTEXT@@PEBU_s_FuncInfo@@@Z 000000018000f858 f   LIBCMT:ehstate.obj
 0001:0000e884       ?__SetState@@YAXPEA_KPEAU_xDISPATCHER_CONTEXT@@PEBU_s_FuncInfo@@H@Z 000000018000f884 f   LIBCMT:ehstate.obj
 0001:0000e890       ?__SetUnwindTryBlock@@YAXPEA_KPEAU_xDISPATCHER_CONTEXT@@PEBU_s_FuncInfo@@H@Z 000000018000f890 f   LIBCMT:ehstate.obj
 0001:0000e8cc       ?__StateFromControlPc@@YAHPEBU_s_FuncInfo@@PEAU_xDISPATCHER_CONTEXT@@@Z 000000018000f8cc f   LIBCMT:ehstate.obj
 0001:0000e8d4       ?__StateFromIp@@YAHPEBU_s_FuncInfo@@PEAU_xDISPATCHER_CONTEXT@@_J@Z 000000018000f8d4 f   LIBCMT:ehstate.obj
 0001:0000e960       ?_inconsistency@@YAXXZ     000000018000f960 f   LIBCMT:hooks.obj
 0001:0000e980       ?terminate@@YAXXZ          000000018000f980 f   LIBCMT:hooks.obj
 0001:0000e9a0       _initp_eh_hooks            000000018000f9a0 f   LIBCMT:hooks.obj
 0001:0000e9d0       strcmp                     000000018000f9d0 f   LIBCMT:strcmp.obj
 0001:0000ea38       ?_Type_info_dtor@type_info@@CAXPEAV1@@Z 000000018000fa38 f   LIBCMT:typname.obj
 0001:0000eaa4       _cfltcvt                   000000018000faa4 f   LIBCMT:cvt.obj
 0001:0000eac8       _cfltcvt_l                 000000018000fac8 f   LIBCMT:cvt.obj
 0001:0000eb48       _cftoa_l                   000000018000fb48 f   LIBCMT:cvt.obj
 0001:0000f0f4       _cftoe_l                   00000001800100f4 f   LIBCMT:cvt.obj
 0001:0000f350       _cftof_l                   0000000180010350 f   LIBCMT:cvt.obj
 0001:0000f424       _cftog_l                   0000000180010424 f   LIBCMT:cvt.obj
 0001:0000f558       _cropzeros                 0000000180010558 f   LIBCMT:cvt.obj
 0001:0000f560       _cropzeros_l               0000000180010560 f   LIBCMT:cvt.obj
 0001:0000f5f8       _fassign                   00000001800105f8 f   LIBCMT:cvt.obj
 0001:0000f600       _fassign_l                 0000000180010600 f   LIBCMT:cvt.obj
 0001:0000f640       _forcdecpt                 0000000180010640 f   LIBCMT:cvt.obj
 0001:0000f648       _forcdecpt_l               0000000180010648 f   LIBCMT:cvt.obj
 0001:0000f6c8       _positive                  00000001800106c8 f   LIBCMT:cvt.obj
 0001:0000f6dc       _initp_misc_cfltcvt_tab    00000001800106dc f   LIBCMT:cmiscdat.obj
 0001:0000f718       strcpy_s                   0000000180010718 f   LIBCMT:strcpy_s.obj
 0001:0000f77c       _lock                      000000018001077c f   LIBCMT:mlock.obj
 0001:0000f7c0       _mtdeletelocks             00000001800107c0 f   LIBCMT:mlock.obj
 0001:0000f848       _mtinitlocknum             0000000180010848 f   LIBCMT:mlock.obj
 0001:0000f908       _mtinitlocks               0000000180010908 f   LIBCMT:mlock.obj
 0001:0000f96c       _unlock                    000000018001096c f   LIBCMT:mlock.obj
 0001:0000f990       _FindPESection             0000000180010990 f   LIBCMT:pesect.obj
 0001:0000f9e0       _IsNonwritableInCurrentImage 00000001800109e0 f   LIBCMT:pesect.obj
 0001:0000fa30       _ValidateImageBase         0000000180010a30 f   LIBCMT:pesect.obj
 0001:0000fa60       _initp_misc_rand_s         0000000180010a60 f   LIBCMT:rand_s.obj
 0001:0000fa68       _ftbuf                     0000000180010a68 f   LIBCMT:_sftbuf.obj
 0001:0000faa0       _stbuf                     0000000180010aa0 f   LIBCMT:_sftbuf.obj
 0001:0000fb70       wcsncpy_s                  0000000180010b70 f   LIBCMT:wcsncpy_s.obj
 0001:0000fc3c       _fcloseall                 0000000180010c3c f   LIBCMT:closeall.obj
 0001:0000fce4       _fileno                    0000000180010ce4 f   LIBCMT:fileno.obj
 0001:0000fd0c       _commit                    0000000180010d0c f   LIBCMT:commit.obj
 0001:0000fde4       _write                     0000000180010de4 f   LIBCMT:write.obj
 0001:0000fec8       _write_nolock              0000000180010ec8 f   LIBCMT:write.obj
 0001:000106bc       _freebuf                   00000001800116bc f   LIBCMT:_freebuf.obj
 0001:000106f4       _woutput_l                 00000001800116f4 f   LIBCMT:woutput.obj
 0001:000112b4       realloc                    00000001800122b4 f   LIBCMT:realloc.obj
 0001:00011388       _calloc_impl               0000000180012388 f   LIBCMT:calloc_impl.obj
 0001:00011440       _local_unwind              0000000180012440 f   LIBCMT:jmpuwind.obj
 0001:00011470       _NLG_Notify                0000000180012470 f   LIBCMT:jmpuwind.obj
 0001:00011490       __NLG_Dispatch2            0000000180012490 f   LIBCMT:jmpuwind.obj
 0001:000114a0       __NLG_Return2              00000001800124a0 f   LIBCMT:jmpuwind.obj
 0001:000114a4       GetTableIndexFromLocaleName 00000001800124a4 f   LIBCMT:winapinls.obj
 0001:00011530       __crtDownlevelLocaleNameToLCID 0000000180012530 f   LIBCMT:winapinls.obj
 0001:00011564       __crtLCMapStringEx         0000000180012564 f   LIBCMT:winapinls.obj
 0001:000115f4       __wcsnicmp_ascii           00000001800125f4 f   LIBCMT:winapinls.obj
 0001:00011660       _get_fpsr                  0000000180012660 f   LIBCMT:fpsr.obj
 0001:00011670       _set_fpsr                  0000000180012670 f   LIBCMT:fpsr.obj
 0001:0001167a       _fclrf                     000000018001267a f   LIBCMT:fpsr.obj
 0001:0001168e       _frnd                      000000018001268e f   LIBCMT:fpsr.obj
 0001:000116b0       _isatty                    00000001800126b0 f   LIBCMT:isatty.obj
 0001:00011710       _lseeki64                  0000000180012710 f   LIBCMT:lseeki64.obj
 0001:000117f8       _lseeki64_nolock           00000001800127f8 f   LIBCMT:lseeki64.obj
 0001:0001188c       _getbuf                    000000018001288c f   LIBCMT:_getbuf.obj
 0001:000118e0       _output_s_l                00000001800128e0 f   LIBCMT:outputs.obj
 0001:00012438       _isleadbyte_l              0000000180013438 f i LIBCMT:_wctype.obj
 0001:0001247c       isleadbyte                 000000018001347c f i LIBCMT:_wctype.obj
 0001:000124c4       _get_printf_count_output   00000001800134c4 f   LIBCMT:printf.obj
 0001:000124dc       _wctomb_s_l                00000001800134dc f   LIBCMT:wctomb.obj
 0001:00012668       wctomb_s                   0000000180013668 f   LIBCMT:wctomb.obj
 0001:0001267c       __free_lconv_mon           000000018001367c f   LIBCMT:initmon.obj
 0001:00012788       __free_lconv_num           0000000180013788 f   LIBCMT:initnum.obj
 0001:000127f4       __free_lc_time             00000001800137f4 f   LIBCMT:inittime.obj
 0001:00012edc       __crtLCMapStringA          0000000180013edc f   LIBCMT:a_map.obj
 0001:000130ec       __crtGetStringTypeA        00000001800140ec f   LIBCMT:a_str.obj
 0001:00013168       _isctype_l                 0000000180014168 f   LIBCMT:isctype.obj
 0001:00013260       memcmp                     0000000180014260 f   LIBCMT:memcmp.obj
 0001:000133a4       _ismbblead                 00000001800143a4 f   LIBCMT:ismbbyte.obj
 0001:000133b8       ?_ValidateRead@@YAHPEBXI@Z 00000001800143b8 f   LIBCMT:validate.obj
 0001:000133b8       ?_ValidateWrite@@YAHPEAXI@Z 00000001800143b8 f   LIBCMT:validate.obj
 0001:000133b8       ?_ValidateExecute@@YAHP6A_JXZ@Z 00000001800143b8 f   LIBCMT:validate.obj
 0001:000133e0       _CallSettingFrame          00000001800143e0 f   LIBCMT:handlers.obj
 0001:00013420       _GetNextInstrOffset        0000000180014420 f   LIBCMT:handlers.obj
 0001:00013428       isdigit                    0000000180014428 f i LIBCMT:_ctype.obj
 0001:000134a4       strrchr                    00000001800144a4 f   LIBCMT:strrchr.obj
 0001:000135e8       _fptostr                   00000001800145e8 f   LIBCMT:_fptostr.obj
 0001:000136b4       __crt_atoflt_l             00000001800146b4 f   LIBCMT:atodbl.obj
 0001:00013784       _atodbl_l                  0000000180014784 f   LIBCMT:atodbl.obj
 0001:0001384c       _atoflt_l                  000000018001484c f   LIBCMT:atodbl.obj
 0001:00013854       __dtold                    0000000180014854 f   LIBCMT:cfout.obj
 0001:00013924       _fltout2                   0000000180014924 f   LIBCMT:cfout.obj
 0001:000139dc       _fptrap                    00000001800149dc f   LIBCMT:crt0fp.obj
 0001:000139e8       _fclose_nolock             00000001800149e8 f   LIBCMT:fclose.obj
 0001:00013a64       fclose                     0000000180014a64 f   LIBCMT:fclose.obj
 0001:00013acc       __lock_fhandle             0000000180014acc f   LIBCMT:osfinfo.obj
 0001:00013b64       _free_osfhnd               0000000180014b64 f   LIBCMT:osfinfo.obj
 0001:00013c10       _get_osfhandle             0000000180014c10 f   LIBCMT:osfinfo.obj
 0001:00013c84       _unlock_fhandle            0000000180014c84 f   LIBCMT:osfinfo.obj
 0001:00013cb0       _mbtowc_l                  0000000180014cb0 f   LIBCMT:mbtowc.obj
 0001:00013e04       mbtowc                     0000000180014e04 f   LIBCMT:mbtowc.obj
 0001:00013e0c       _putwch_nolock             0000000180014e0c f   LIBCMT:putwch.obj
 0001:00013e80       _alloca_probe              0000000180014e80 f   LIBCMT:chkstk.obj
 0001:00013e80       __chkstk                   0000000180014e80 f   LIBCMT:chkstk.obj
 0001:00013ed0       _fputwc_nolock             0000000180014ed0 f   LIBCMT:fputwc.obj
 0001:000140c4       _ld12tod                   00000001800150c4 f   LIBCMT:intrncvt.obj
 0001:0001467c       _ld12tof                   000000018001567c f   LIBCMT:intrncvt.obj
 0001:00014c34       __strgtold12_l             0000000180015c34 f   LIBCMT:strgtold.obj
 0001:00015498       $I10_OUTPUT                0000000180016498 f   LIBCMT:x10fout.obj
 0001:00015f70       _close                     0000000180016f70 f   LIBCMT:close.obj
 0001:00016034       _close_nolock              0000000180017034 f   LIBCMT:close.obj
 0001:000160f0       __termconout               00000001800170f0 f   LIBCMT:initcon.obj
 0001:00016110       __initconout               0000000180017110 f   LIBCMT:initcon.obj
 0001:0001614c       _flswbuf                   000000018001714c f   LIBCMT:_flswbuf.obj
 0001:000162dc       __mtold12                  00000001800172dc f   LIBCMT:mantold.obj
 0001:00016500       IsProcessorFeaturePresent  0000000180017500 f   kernel32:KERNEL32.dll
 0001:00016506       RtlUnwindEx                0000000180017506 f   kernel32:KERNEL32.dll
 0001:0001650c       __delayLoadHelper2         000000018001750c f   DelayImp:delayhlp.obj
 0001:000167a4       __ascii_strnicmp           00000001800177a4 f   LIBCMT:strnicmp.obj
 0001:000167ec       strnicmp                   00000001800177ec f   LIBCMT:strnicmp.obj
 0001:000167ec       _strnicmp                  00000001800177ec f   LIBCMT:strnicmp.obj
 0001:0001683c       _strnicmp_l                000000018001783c f   LIBCMT:strnicmp.obj
 0001:00016918       _strdup                    0000000180017918 f   LIBCMT:strdup.obj
 0001:00016918       strdup                     0000000180017918 f   LIBCMT:strdup.obj
 0001:00016988       __GSHandlerCheck_EH        0000000180017988 f   LIBCMT:gshandlereh.obj
 0002:00000000       __imp_RegQueryValueExA     0000000180019000     advapi32:ADVAPI32.dll
 0002:00000008       __imp_RegCloseKey          0000000180019008     advapi32:ADVAPI32.dll
 0002:00000010       \177ADVAPI32_NULL_THUNK_DATA 0000000180019010     advapi32:ADVAPI32.dll
 0002:00000018       __imp_EscapeCommFunction   0000000180019018     kernel32:KERNEL32.dll
 0002:00000020       __imp_WriteFile            0000000180019020     kernel32:KERNEL32.dll
 0002:00000028       __imp_SetCommState         0000000180019028     kernel32:KERNEL32.dll
 0002:00000030       __imp_SetCommTimeouts      0000000180019030     kernel32:KERNEL32.dll
 0002:00000038       __imp_CreateEventA         0000000180019038     kernel32:KERNEL32.dll
 0002:00000040       __imp_ReadFile             0000000180019040     kernel32:KERNEL32.dll
 0002:00000048       __imp_GetOverlappedResult  0000000180019048     kernel32:KERNEL32.dll
 0002:00000050       __imp_FlushFileBuffers     0000000180019050     kernel32:KERNEL32.dll
 0002:00000058       __imp_GetCommState         0000000180019058     kernel32:KERNEL32.dll
 0002:00000060       __imp_GetProcAddress       0000000180019060     kernel32:KERNEL32.dll
 0002:00000068       __imp_LoadLibraryA         0000000180019068     kernel32:KERNEL32.dll
 0002:00000070       __imp_GetCommMask          0000000180019070     kernel32:KERNEL32.dll
 0002:00000078       __imp_SetCommMask          0000000180019078     kernel32:KERNEL32.dll
 0002:00000080       __imp_PurgeComm            0000000180019080     kernel32:KERNEL32.dll
 0002:00000088       __imp_CloseHandle          0000000180019088     kernel32:KERNEL32.dll
 0002:00000090       __imp_GetModuleHandleA     0000000180019090     kernel32:KERNEL32.dll
 0002:00000098       __imp_GetCommModemStatus   0000000180019098     kernel32:KERNEL32.dll
 0002:000000a0       __imp_GetLastError         00000001800190a0     kernel32:KERNEL32.dll
 0002:000000a8       __imp_CreateFileA          00000001800190a8     kernel32:KERNEL32.dll
 0002:000000b0       __imp_CreateFileW          00000001800190b0     kernel32:KERNEL32.dll
 0002:000000b8       __imp_SetStdHandle         00000001800190b8     kernel32:KERNEL32.dll
 0002:000000c0       __imp_GetStringTypeW       00000001800190c0     kernel32:KERNEL32.dll
 0002:000000c8       __imp_SetFilePointerEx     00000001800190c8     kernel32:KERNEL32.dll
 0002:000000d0       __imp_HeapFree             00000001800190d0     kernel32:KERNEL32.dll
 0002:000000d8       __imp_HeapAlloc            00000001800190d8     kernel32:KERNEL32.dll
 0002:000000e0       __imp_GetStdHandle         00000001800190e0     kernel32:KERNEL32.dll
 0002:000000e8       __imp_GetFileType          00000001800190e8     kernel32:KERNEL32.dll
 0002:000000f0       __imp_GetModuleFileNameW   00000001800190f0     kernel32:KERNEL32.dll
 0002:000000f8       __imp_GetModuleHandleExW   00000001800190f8     kernel32:KERNEL32.dll
 0002:00000100       __imp_WriteConsoleW        0000000180019100     kernel32:KERNEL32.dll
 0002:00000108       __imp_EncodePointer        0000000180019108     kernel32:KERNEL32.dll
 0002:00000110       __imp_DecodePointer        0000000180019110     kernel32:KERNEL32.dll
 0002:00000118       __imp_IsDebuggerPresent    0000000180019118     kernel32:KERNEL32.dll
 0002:00000120       __imp_IsProcessorFeaturePresent 0000000180019120     kernel32:KERNEL32.dll
 0002:00000128       __imp_GetCommandLineA      0000000180019128     kernel32:KERNEL32.dll
 0002:00000130       __imp_GetCurrentThreadId   0000000180019130     kernel32:KERNEL32.dll
 0002:00000138       __imp_RtlPcToFileHeader    0000000180019138     kernel32:KERNEL32.dll
 0002:00000140       __imp_RaiseException       0000000180019140     kernel32:KERNEL32.dll
 0002:00000148       __imp_RtlLookupFunctionEntry 0000000180019148     kernel32:KERNEL32.dll
 0002:00000150       __imp_RtlUnwindEx          0000000180019150     kernel32:KERNEL32.dll
 0002:00000158       __imp_GetProcessHeap       0000000180019158     kernel32:KERNEL32.dll
 0002:00000160       __imp_ExitProcess          0000000180019160     kernel32:KERNEL32.dll
 0002:00000168       __imp_MultiByteToWideChar  0000000180019168     kernel32:KERNEL32.dll
 0002:00000170       __imp_WideCharToMultiByte  0000000180019170     kernel32:KERNEL32.dll
 0002:00000178       __imp_EnterCriticalSection 0000000180019178     kernel32:KERNEL32.dll
 0002:00000180       __imp_LeaveCriticalSection 0000000180019180     kernel32:KERNEL32.dll
 0002:00000188       __imp_OutputDebugStringW   0000000180019188     kernel32:KERNEL32.dll
 0002:00000190       __imp_LoadLibraryExW       0000000180019190     kernel32:KERNEL32.dll
 0002:00000198       __imp_HeapSize             0000000180019198     kernel32:KERNEL32.dll
 0002:000001a0       __imp_RtlCaptureContext    00000001800191a0     kernel32:KERNEL32.dll
 0002:000001a8       __imp_RtlVirtualUnwind     00000001800191a8     kernel32:KERNEL32.dll
 0002:000001b0       __imp_UnhandledExceptionFilter 00000001800191b0     kernel32:KERNEL32.dll
 0002:000001b8       __imp_SetUnhandledExceptionFilter 00000001800191b8     kernel32:KERNEL32.dll
 0002:000001c0       __imp_SetLastError         00000001800191c0     kernel32:KERNEL32.dll
 0002:000001c8       __imp_InitializeCriticalSectionAndSpinCount 00000001800191c8     kernel32:KERNEL32.dll
 0002:000001d0       __imp_Sleep                00000001800191d0     kernel32:KERNEL32.dll
 0002:000001d8       __imp_GetCurrentProcess    00000001800191d8     kernel32:KERNEL32.dll
 0002:000001e0       __imp_TerminateProcess     00000001800191e0     kernel32:KERNEL32.dll
 0002:000001e8       __imp_TlsAlloc             00000001800191e8     kernel32:KERNEL32.dll
 0002:000001f0       __imp_TlsGetValue          00000001800191f0     kernel32:KERNEL32.dll
 0002:000001f8       __imp_TlsSetValue          00000001800191f8     kernel32:KERNEL32.dll
 0002:00000200       __imp_TlsFree              0000000180019200     kernel32:KERNEL32.dll
 0002:00000208       __imp_GetStartupInfoW      0000000180019208     kernel32:KERNEL32.dll
 0002:00000210       __imp_GetModuleHandleW     0000000180019210     kernel32:KERNEL32.dll
 0002:00000218       __imp_IsValidCodePage      0000000180019218     kernel32:KERNEL32.dll
 0002:00000220       __imp_GetACP               0000000180019220     kernel32:KERNEL32.dll
 0002:00000228       __imp_GetOEMCP             0000000180019228     kernel32:KERNEL32.dll
 0002:00000230       __imp_GetCPInfo            0000000180019230     kernel32:KERNEL32.dll
 0002:00000238       __imp_DeleteCriticalSection 0000000180019238     kernel32:KERNEL32.dll
 0002:00000240       __imp_GetModuleFileNameA   0000000180019240     kernel32:KERNEL32.dll
 0002:00000248       __imp_QueryPerformanceCounter 0000000180019248     kernel32:KERNEL32.dll
 0002:00000250       __imp_GetCurrentProcessId  0000000180019250     kernel32:KERNEL32.dll
 0002:00000258       __imp_GetSystemTimeAsFileTime 0000000180019258     kernel32:KERNEL32.dll
 0002:00000260       __imp_GetEnvironmentStringsW 0000000180019260     kernel32:KERNEL32.dll
 0002:00000268       __imp_FreeEnvironmentStringsW 0000000180019268     kernel32:KERNEL32.dll
 0002:00000270       __imp_FreeLibrary          0000000180019270     kernel32:KERNEL32.dll
 0002:00000278       __imp_GetConsoleCP         0000000180019278     kernel32:KERNEL32.dll
 0002:00000280       __imp_GetConsoleMode       0000000180019280     kernel32:KERNEL32.dll
 0002:00000288       __imp_HeapReAlloc          0000000180019288     kernel32:KERNEL32.dll
 0002:00000290       __imp_LCMapStringW         0000000180019290     kernel32:KERNEL32.dll
 0002:00000298       __imp_LoadLibraryExA       0000000180019298     kernel32:KERNEL32.dll
 0002:000002a0       \177KERNEL32_NULL_THUNK_DATA 00000001800192a0     kernel32:KERNEL32.dll
 0002:000002a8       __imp_SetupDiOpenDevRegKey 00000001800192a8     setupapi:SETUPAPI.dll
 0002:000002b0       __imp_SetupDiGetDeviceInstanceIdA 00000001800192b0     setupapi:SETUPAPI.dll
 0002:000002b8       __imp_SetupDiEnumDeviceInfo 00000001800192b8     setupapi:SETUPAPI.dll
 0002:000002c0       __imp_SetupDiDestroyDeviceInfoList 00000001800192c0     setupapi:SETUPAPI.dll
 0002:000002c8       __imp_SetupDiGetClassDevsA 00000001800192c8     setupapi:SETUPAPI.dll
 0002:000002d0       __imp_SetupDiGetDeviceRegistryPropertyA 00000001800192d0     setupapi:SETUPAPI.dll
 0002:000002d8       \177SETUPAPI_NULL_THUNK_DATA 00000001800192d8     setupapi:SETUPAPI.dll
 0002:000002e0       __xc_a                     00000001800192e0     LIBCMT:crt0init.obj
 0002:00000310       _register_serialport_      0000000180019310     serialport.obj
 0002:00000318       __xc_z                     0000000180019318     LIBCMT:crt0init.obj
 0002:00000320       __xi_a                     0000000180019320     LIBCMT:crt0init.obj
 0002:00000348       __xi_z                     0000000180019348     LIBCMT:crt0init.obj
 0002:00000350       __xp_a                     0000000180019350     LIBCMT:crt0init.obj
 0002:00000370       __xp_z                     0000000180019370     LIBCMT:crt0init.obj
 0002:00000378       __xt_a                     0000000180019378     LIBCMT:crt0init.obj
 0002:00000380       __xt_z                     0000000180019380     LIBCMT:crt0init.obj
 0002:000003c8       GUID_DEVCLASS_PORTS        00000001800193c8     uuid:cguid_i.obj
 0002:000003e0       __sz_node_exe              00000001800193e0     node:node.exe
 0002:00000d90       ??_C@_0BC@CIJDGCDI@permission?5denied?$AA@ 0000000180019d90     libcpmt:syserror.obj
 0002:00000da8       ??_C@_0M@MIDIAGJP@file?5exists?$AA@ 0000000180019da8     libcpmt:syserror.obj
 0002:00000db8       ??_C@_0P@FDINDDOK@no?5such?5device?$AA@ 0000000180019db8     libcpmt:syserror.obj
 0002:00000dc8       ??_C@_0BC@EJHOMAAK@filename?5too?5long?$AA@ 0000000180019dc8     libcpmt:syserror.obj
 0002:00000de0       ??_C@_0BI@NGCEHDD@device?5or?5resource?5busy?$AA@ 0000000180019de0     libcpmt:syserror.obj
 0002:00000df8       ??_C@_08GLNPIFBN@io?5error?$AA@ 0000000180019df8     libcpmt:syserror.obj
 0002:00000e08       ??_C@_0BE@JIDOCPHM@directory?5not?5empty?$AA@ 0000000180019e08     libcpmt:syserror.obj
 0002:00000e20       ??_C@_0BB@FCMFBGOM@invalid?5argument?$AA@ 0000000180019e20     libcpmt:syserror.obj
 0002:00000e38       ??_C@_0BD@IJDJKDEA@no?5space?5on?5device?$AA@ 0000000180019e38     libcpmt:syserror.obj
 0002:00000e50       ??_C@_0BK@NDOCBPGE@no?5such?5file?5or?5directory?$AA@ 0000000180019e50     libcpmt:syserror.obj
 0002:00000e70       ??_C@_0BH@KEFGLDAF@function?5not?5supported?$AA@ 0000000180019e70     libcpmt:syserror.obj
 0002:00000e88       ??_C@_0BC@NJECKMKE@no?5lock?5available?$AA@ 0000000180019e88     libcpmt:syserror.obj
 0002:00000ea0       ??_C@_0BC@ENOOLCNF@not?5enough?5memory?$AA@ 0000000180019ea0     libcpmt:syserror.obj
 0002:00000eb8       ??_C@_0BP@LKNGHENJ@resource?5unavailable?5try?5again?$AA@ 0000000180019eb8     libcpmt:syserror.obj
 0002:00000ed8       ??_C@_0BC@PPHBOELF@cross?5device?5link?$AA@ 0000000180019ed8     libcpmt:syserror.obj
 0002:00000ef0       ??_C@_0BD@MOLBPMEA@operation?5canceled?$AA@ 0000000180019ef0     libcpmt:syserror.obj
 0002:00000f08       ??_C@_0BE@GHAFMPAH@too?5many?5files?5open?$AA@ 0000000180019f08     libcpmt:syserror.obj
 0002:00000f20       ??_C@_0BC@FNODOBAE@permission_denied?$AA@ 0000000180019f20     libcpmt:syserror.obj
 0002:00000f38       ??_C@_0P@LNDJPBFK@address_in_use?$AA@ 0000000180019f38     libcpmt:syserror.obj
 0002:00000f48       ??_C@_0BG@IPMGOJF@address_not_available?$AA@ 0000000180019f48     libcpmt:syserror.obj
 0002:00000f60       ??_C@_0BN@LCBDHODA@address_family_not_supported?$AA@ 0000000180019f60     libcpmt:syserror.obj
 0002:00000f80       ??_C@_0BP@FOJJHMCC@connection_already_in_progress?$AA@ 0000000180019f80     libcpmt:syserror.obj
 0002:00000fa0       ??_C@_0BE@DLHHIBGN@bad_file_descriptor?$AA@ 0000000180019fa0     libcpmt:syserror.obj
 0002:00000fb8       ??_C@_0BD@OJMJDIGI@connection_aborted?$AA@ 0000000180019fb8     libcpmt:syserror.obj
 0002:00000fd0       ??_C@_0BD@NGKCIFEP@connection_refused?$AA@ 0000000180019fd0     libcpmt:syserror.obj
 0002:00000fe8       ??_C@_0BB@JOANDNCK@connection_reset?$AA@ 0000000180019fe8     libcpmt:syserror.obj
 0002:00001000       ??_C@_0BN@JLJNLKLK@destination_address_required?$AA@ 000000018001a000     libcpmt:syserror.obj
 0002:00001020       ??_C@_0M@IJGMGFGP@bad_address?$AA@ 000000018001a020     libcpmt:syserror.obj
 0002:00001030       ??_C@_0BB@KKNHPPIN@host_unreachable?$AA@ 000000018001a030     libcpmt:syserror.obj
 0002:00001048       ??_C@_0BG@DJGBJIIK@operation_in_progress?$AA@ 000000018001a048     libcpmt:syserror.obj
 0002:00001060       ??_C@_0M@EGEKIIMP@interrupted?$AA@ 000000018001a060     libcpmt:syserror.obj
 0002:00001070       ??_C@_0BB@FFIHMIPJ@invalid_argument?$AA@ 000000018001a070     libcpmt:syserror.obj
 0002:00001088       ??_C@_0BC@FIFLCHLO@already_connected?$AA@ 000000018001a088     libcpmt:syserror.obj
 0002:000010a0       ??_C@_0BE@GJJJJDDA@too_many_files_open?$AA@ 000000018001a0a0     libcpmt:syserror.obj
 0002:000010b8       ??_C@_0N@HPMLKHPL@message_size?$AA@ 000000018001a0b8     libcpmt:syserror.obj
 0002:000010c8       ??_C@_0BC@LEEIKBAL@filename_too_long?$AA@ 000000018001a0c8     libcpmt:syserror.obj
 0002:000010e0       ??_C@_0N@FCPALPJK@network_down?$AA@ 000000018001a0e0     libcpmt:syserror.obj
 0002:000010f0       ??_C@_0O@EHNDLHIG@network_reset?$AA@ 000000018001a0f0     libcpmt:syserror.obj
 0002:00001100       ??_C@_0BE@JFNJIDNF@network_unreachable?$AA@ 000000018001a100     libcpmt:syserror.obj
 0002:00001118       ??_C@_0BA@FDIJKJCL@no_buffer_space?$AA@ 000000018001a118     libcpmt:syserror.obj
 0002:00001128       ??_C@_0BD@JHIHCGKP@no_protocol_option?$AA@ 000000018001a128     libcpmt:syserror.obj
 0002:00001140       ??_C@_0O@GBCLHHD@not_connected?$AA@ 000000018001a140     libcpmt:syserror.obj
 0002:00001150       ??_C@_0N@IMHKKLEM@not_a_socket?$AA@ 000000018001a150     libcpmt:syserror.obj
 0002:00001160       ??_C@_0BI@ICEIDKLJ@operation_not_supported?$AA@ 000000018001a160     libcpmt:syserror.obj
 0002:00001178       ??_C@_0BH@KAPBAIJF@protocol_not_supported?$AA@ 000000018001a178     libcpmt:syserror.obj
 0002:00001190       ??_C@_0BE@GAOJJFPC@wrong_protocol_type?$AA@ 000000018001a190     libcpmt:syserror.obj
 0002:000011a8       ??_C@_09NCHNLHPG@timed_out?$AA@ 000000018001a1a8     libcpmt:syserror.obj
 0002:000011b8       ??_C@_0BG@GDGHKFDH@operation_would_block?$AA@ 000000018001a1b8     libcpmt:syserror.obj
 0002:000011d0       ??_C@_0BN@LKKBCCDB@address?5family?5not?5supported?$AA@ 000000018001a1d0     libcpmt:syserror.obj
 0002:000011f0       ??_C@_0P@LDMLAFHI@address?5in?5use?$AA@ 000000018001a1f0     libcpmt:syserror.obj
 0002:00001200       ??_C@_0BG@DHPCNBJB@address?5not?5available?$AA@ 000000018001a200     libcpmt:syserror.obj
 0002:00001218       ??_C@_0BC@DFIBIBIL@already?5connected?$AA@ 000000018001a218     libcpmt:syserror.obj
 0002:00001230       ??_C@_0BH@CAKOHOMI@argument?5list?5too?5long?$AA@ 000000018001a230     libcpmt:syserror.obj
 0002:00001248       ??_C@_0BH@CGIMPKIM@argument?5out?5of?5domain?$AA@ 000000018001a248     libcpmt:syserror.obj
 0002:00001260       ??_C@_0M@KGHGGJGL@bad?5address?$AA@ 000000018001a260     libcpmt:syserror.obj
 0002:00001270       ??_C@_0BE@MPJPGCEO@bad?5file?5descriptor?$AA@ 000000018001a270     libcpmt:syserror.obj
 0002:00001288       ??_C@_0M@PMMIEFCP@bad?5message?$AA@ 000000018001a288     libcpmt:syserror.obj
 0002:00001298       ??_C@_0M@KPHOFDBE@broken?5pipe?$AA@ 000000018001a298     libcpmt:syserror.obj
 0002:000012a8       ??_C@_0BD@MGNDDEGM@connection?5aborted?$AA@ 000000018001a2a8     libcpmt:syserror.obj
 0002:000012c0       ??_C@_0BP@KAIHPOGN@connection?5already?5in?5progress?$AA@ 000000018001a2c0     libcpmt:syserror.obj
 0002:000012e0       ??_C@_0BD@PJLIIJEL@connection?5refused?$AA@ 000000018001a2e0     libcpmt:syserror.obj
 0002:000012f8       ??_C@_0BB@IECNJNOI@connection?5reset?$AA@ 000000018001a2f8     libcpmt:syserror.obj
 0002:00001310       ??_C@_0BN@KDMIFEIP@destination?5address?5required?$AA@ 000000018001a310     libcpmt:syserror.obj
 0002:00001330       ??_C@_0BI@BNCLIGPB@executable?5format?5error?$AA@ 000000018001a330     libcpmt:syserror.obj
 0002:00001348       ??_C@_0P@DNAJLBJK@file?5too?5large?$AA@ 000000018001a348     libcpmt:syserror.obj
 0002:00001358       ??_C@_0BB@DHFDFGDM@host?5unreachable?$AA@ 000000018001a358     libcpmt:syserror.obj
 0002:00001370       ??_C@_0BD@JPHBMONG@identifier?5removed?$AA@ 000000018001a370     libcpmt:syserror.obj
 0002:00001388       ??_C@_0BG@CDNPAGJK@illegal?5byte?5sequence?$AA@ 000000018001a388     libcpmt:syserror.obj
 0002:000013a0       ??_C@_0CD@BNPLBMNA@inappropriate?5io?5control?5operati@ 000000018001a3a0     libcpmt:syserror.obj
 0002:000013c8       ??_C@_0N@OHAFKDEK@invalid?5seek?$AA@ 000000018001a3c8     libcpmt:syserror.obj
 0002:000013d8       ??_C@_0P@FLLDBIDK@is?5a?5directory?$AA@ 000000018001a3d8     libcpmt:syserror.obj
 0002:000013e8       ??_C@_0N@IFLPBIOP@message?5size?$AA@ 000000018001a3e8     libcpmt:syserror.obj
 0002:000013f8       ??_C@_0N@KIIEAAIO@network?5down?$AA@ 000000018001a3f8     libcpmt:syserror.obj
 0002:00001408       ??_C@_0O@FNPDBHEE@network?5reset?$AA@ 000000018001a408     libcpmt:syserror.obj
 0002:00001418       ??_C@_0BE@IFNCKGE@network?5unreachable?$AA@ 000000018001a418     libcpmt:syserror.obj
 0002:00001430       ??_C@_0BA@PFFCAOFK@no?5buffer?5space?$AA@ 000000018001a430     libcpmt:syserror.obj
 0002:00001440       ??_C@_0BB@IEPBLJHK@no?5child?5process?$AA@ 000000018001a440     libcpmt:syserror.obj
 0002:00001458       ??_C@_07PLECNNKG@no?5link?$AA@ 000000018001a458     libcpmt:syserror.obj
 0002:00001460       ??_C@_0BF@PBGGPKKE@no?5message?5available?$AA@ 000000018001a460     libcpmt:syserror.obj
 0002:00001478       ??_C@_0L@EDOLMPAK@no?5message?$AA@ 000000018001a478     libcpmt:syserror.obj
 0002:00001488       ??_C@_0BD@EAMBFIDF@no?5protocol?5option?$AA@ 000000018001a488     libcpmt:syserror.obj
 0002:000014a0       ??_C@_0BE@MKFDAFMP@no?5stream?5resources?$AA@ 000000018001a4a0     libcpmt:syserror.obj
 0002:000014b8       ??_C@_0BK@IMCPHCBI@no?5such?5device?5or?5address?$AA@ 000000018001a4b8     libcpmt:syserror.obj
 0002:000014d8       ??_C@_0BA@ENLPPKBN@no?5such?5process?$AA@ 000000018001a4d8     libcpmt:syserror.obj
 0002:000014e8       ??_C@_0BA@DOCPFFJG@not?5a?5directory?$AA@ 000000018001a4e8     libcpmt:syserror.obj
 0002:000014f8       ??_C@_0N@POEIPGGF@not?5a?5socket?$AA@ 000000018001a4f8     libcpmt:syserror.obj
 0002:00001508       ??_C@_0N@LGAPMMPI@not?5a?5stream?$AA@ 000000018001a508     libcpmt:syserror.obj
 0002:00001518       ??_C@_0O@GLMIBBEG@not?5connected?$AA@ 000000018001a518     libcpmt:syserror.obj
 0002:00001528       ??_C@_0O@NHEDABJP@not?5supported?$AA@ 000000018001a528     libcpmt:syserror.obj
 0002:00001538       ??_C@_0BG@KDKHOPCO@operation?5in?5progress?$AA@ 000000018001a538     libcpmt:syserror.obj
 0002:00001550       ??_C@_0BI@OHIEJAAB@operation?5not?5permitted?$AA@ 000000018001a550     libcpmt:syserror.obj
 0002:00001568       ??_C@_0BI@LNEGIFLN@operation?5not?5supported?$AA@ 000000018001a568     libcpmt:syserror.obj
 0002:00001580       ??_C@_0BG@OEMDKMEE@operation?5would?5block?$AA@ 000000018001a580     libcpmt:syserror.obj
 0002:00001598       ??_C@_0L@BLPOFLNJ@owner?5dead?$AA@ 000000018001a598     libcpmt:syserror.obj
 0002:000015a8       ??_C@_0P@FNPOCJBE@protocol?5error?$AA@ 000000018001a5a8     libcpmt:syserror.obj
 0002:000015b8       ??_C@_0BH@JPPPLHJB@protocol?5not?5supported?$AA@ 000000018001a5b8     libcpmt:syserror.obj
 0002:000015d0       ??_C@_0BG@EICBIHDP@read?5only?5file?5system?$AA@ 000000018001a5d0     libcpmt:syserror.obj
 0002:000015e8       ??_C@_0BO@BJBOMOEJ@resource?5deadlock?5would?5occur?$AA@ 000000018001a5e8     libcpmt:syserror.obj
 0002:00001608       ??_C@_0BE@GOIPJJHG@result?5out?5of?5range?$AA@ 000000018001a608     libcpmt:syserror.obj
 0002:00001620       ??_C@_0BG@MPLKFPAE@state?5not?5recoverable?$AA@ 000000018001a620     libcpmt:syserror.obj
 0002:00001638       ??_C@_0P@DIIFGFCG@stream?5timeout?$AA@ 000000018001a638     libcpmt:syserror.obj
 0002:00001648       ??_C@_0P@IPFDMIFL@text?5file?5busy?$AA@ 000000018001a648     libcpmt:syserror.obj
 0002:00001658       ??_C@_09KJPPMAOI@timed?5out?$AA@ 000000018001a658     libcpmt:syserror.obj
 0002:00001668       ??_C@_0BO@HACHBEKI@too?5many?5files?5open?5in?5system?$AA@ 000000018001a668     libcpmt:syserror.obj
 0002:00001688       ??_C@_0P@HCOMKFCC@too?5many?5links?$AA@ 000000018001a688     libcpmt:syserror.obj
 0002:00001698       ??_C@_0BO@EFGOJEF@too?5many?5symbolic?5link?5levels?$AA@ 000000018001a698     libcpmt:syserror.obj
 0002:000016b8       ??_C@_0BA@KGKGOOJA@value?5too?5large?$AA@ 000000018001a6b8     libcpmt:syserror.obj
 0002:000016c8       ??_C@_0BE@MIEJDDNH@wrong?5protocol?5type?$AA@ 000000018001a6c8     libcpmt:syserror.obj
 0002:000016e8       ??_7bad_alloc@std@@6B@     000000018001a6e8     libcpmt:xthrow.obj
 0002:000016f8       ??_C@_0P@GHFPNOJB@bad?5allocation?$AA@ 000000018001a6f8     libcpmt:xthrow.obj
 0002:00001710       ??_7logic_error@std@@6B@   000000018001a710     libcpmt:xthrow.obj
 0002:00001728       ??_7length_error@std@@6B@  000000018001a728     libcpmt:xthrow.obj
 0002:00001740       ??_7out_of_range@std@@6B@  000000018001a740     libcpmt:xthrow.obj
 0002:00001750       ??_C@_17LGKOMLJ@?$AA?4?$AA?4?$AA?4?$AA?$AA@ 000000018001a750     LIBCMT:wassert.obj
 0002:00001758       ??_C@_13LBAGMAIH@?$AA?6?$AA?$AA@ 000000018001a758     LIBCMT:wassert.obj
 0002:0000175c       ??_C@_15IABLJNFO@?$AA?6?$AA?6?$AA?$AA@ 000000018001a75c     LIBCMT:wassert.obj
 0002:00001768       ??_C@_1CE@OJBNHDMO@?$AAA?$AAs?$AAs?$AAe?$AAr?$AAt?$AAi?$AAo?$AAn?$AA?5?$AAf?$AAa?$AAi?$AAl?$AAe?$AAd?$AA?$CB?$AA?$AA@ 000000018001a768     LIBCMT:wassert.obj
 0002:00001790       ??_C@_1BE@PHKBBGE@?$AAP?$AAr?$AAo?$AAg?$AAr?$AAa?$AAm?$AA?3?$AA?5?$AA?$AA@ 000000018001a790     LIBCMT:wassert.obj
 0002:000017a8       ??_C@_1CO@EAEJAADC@?$AA?$DM?$AAp?$AAr?$AAo?$AAg?$AAr?$AAa?$AAm?$AA?5?$AAn?$AAa?$AAm?$AAe?$AA?5?$AAu?$AAn?$AAk?$AAn?$AAo?$AAw?$AAn?$AA?$DO?$AA?$AA@ 000000018001a7a8     LIBCMT:wassert.obj
 0002:000017d8       ??_C@_1O@HEMHKNDC@?$AAF?$AAi?$AAl?$AAe?$AA?3?$AA?5?$AA?$AA@ 000000018001a7d8     LIBCMT:wassert.obj
 0002:000017e8       ??_C@_1O@KCAFKHJE@?$AAL?$AAi?$AAn?$AAe?$AA?3?$AA?5?$AA?$AA@ 000000018001a7e8     LIBCMT:wassert.obj
 0002:000017f8       ??_C@_1BK@PEDCIPMA@?$AAE?$AAx?$AAp?$AAr?$AAe?$AAs?$AAs?$AAi?$AAo?$AAn?$AA?3?$AA?5?$AA?$AA@ 000000018001a7f8     LIBCMT:wassert.obj
 0002:00001820       ??_C@_1OA@EGMLFBHJ@?$AAF?$AAo?$AAr?$AA?5?$AAi?$AAn?$AAf?$AAo?$AAr?$AAm?$AAa?$AAt?$AAi?$AAo?$AAn?$AA?5?$AAo?$AAn?$AA?5?$AAh?$AAo?$AAw?$AA?5?$AAy?$AAo?$AAu?$AAr?$AA?5?$AAp?$AAr?$AAo?$AAg@ 000000018001a820     LIBCMT:wassert.obj
 0002:00001900       ??_C@_1HK@POCJMFGK@?$AA?$CI?$AAP?$AAr?$AAe?$AAs?$AAs?$AA?5?$AAR?$AAe?$AAt?$AAr?$AAy?$AA?5?$AAt?$AAo?$AA?5?$AAd?$AAe?$AAb?$AAu?$AAg?$AA?5?$AAt?$AAh?$AAe?$AA?5?$AAa?$AAp?$AAp?$AAl?$AAi?$AAc@ 000000018001a900     LIBCMT:wassert.obj
 0002:00001980       ??_C@_1EK@MBDPDCGA@?$AAM?$AAi?$AAc?$AAr?$AAo?$AAs?$AAo?$AAf?$AAt?$AA?5?$AAV?$AAi?$AAs?$AAu?$AAa?$AAl?$AA?5?$AAC?$AA?$CL?$AA?$CL?$AA?5?$AAR?$AAu?$AAn?$AAt?$AAi?$AAm?$AAe?$AA?5?$AAL?$AAi?$AAb@ 000000018001a980     LIBCMT:wassert.obj
 0002:000019cc       ??_C@_06MEIMCGCF@_hypot?$AA@ 000000018001a9cc     LIBCMT:hypot.obj
 0002:000019e8       _pRawDllMain               000000018001a9e8     LIBCMT:dllcrt0.obj
 0002:000019e8       _pDefaultRawDllMain        000000018001a9e8     LIBCMT:dllcrt0.obj
 0002:00001ad0       ??_7type_info@@6B@         000000018001aad0     LIBCMT:typinfo.obj
 0002:00001ad8       _FPinit                    000000018001aad8     LIBCMT:fpinit.obj
 0002:00001ae8       ??_7exception@std@@6B@     000000018001aae8     LIBCMT:stdexcpt.obj
 0002:00001af8       ??_C@_0BC@EOODALEL@Unknown?5exception?$AA@ 000000018001aaf8     LIBCMT:stdexcpt.obj
 0002:00001b10       ??_C@_1BI@BGOHAHKC@?$AAm?$AAs?$AAc?$AAo?$AAr?$AAe?$AAe?$AA?4?$AAd?$AAl?$AAl?$AA?$AA@ 000000018001ab10     LIBCMT:crt0dat.obj
 0002:00001b28       ??_C@_0P@MIGLKIOC@CorExitProcess?$AA@ 000000018001ab28     LIBCMT:crt0dat.obj
 0002:00001cb0       ??_C@_1FK@PGACCAFB@?$AAR?$AA6?$AA0?$AA0?$AA2?$AA?$AN?$AA?6?$AA?9?$AA?5?$AAf?$AAl?$AAo?$AAa?$AAt?$AAi?$AAn?$AAg?$AA?5?$AAp?$AAo?$AAi?$AAn?$AAt?$AA?5?$AAs?$AAu?$AAp?$AAp?$AAo?$AAr?$AAt?$AA?5@ 000000018001acb0     LIBCMT:crt0msg.obj
 0002:00001d10       ??_C@_1FE@LLNEDJMD@?$AAR?$AA6?$AA0?$AA0?$AA8?$AA?$AN?$AA?6?$AA?9?$AA?5?$AAn?$AAo?$AAt?$AA?5?$AAe?$AAn?$AAo?$AAu?$AAg?$AAh?$AA?5?$AAs?$AAp?$AAa?$AAc?$AAe?$AA?5?$AAf?$AAo?$AAr?$AA?5?$AAa?$AAr@ 000000018001ad10     LIBCMT:crt0msg.obj
 0002:00001d70       ??_C@_1FI@HONFMGBI@?$AAR?$AA6?$AA0?$AA0?$AA9?$AA?$AN?$AA?6?$AA?9?$AA?5?$AAn?$AAo?$AAt?$AA?5?$AAe?$AAn?$AAo?$AAu?$AAg?$AAh?$AA?5?$AAs?$AAp?$AAa?$AAc?$AAe?$AA?5?$AAf?$AAo?$AAr?$AA?5?$AAe?$AAn@ 000000018001ad70     LIBCMT:crt0msg.obj
 0002:00001dd0       ??_C@_1EG@BEHAGFJD@?$AAR?$AA6?$AA0?$AA1?$AA0?$AA?$AN?$AA?6?$AA?9?$AA?5?$AAa?$AAb?$AAo?$AAr?$AAt?$AA?$CI?$AA?$CJ?$AA?5?$AAh?$AAa?$AAs?$AA?5?$AAb?$AAe?$AAe?$AAn?$AA?5?$AAc?$AAa?$AAl?$AAl?$AAe?$AAd@ 000000018001add0     LIBCMT:crt0msg.obj
 0002:00001e20       ??_C@_1FI@LOGNIKDM@?$AAR?$AA6?$AA0?$AA1?$AA6?$AA?$AN?$AA?6?$AA?9?$AA?5?$AAn?$AAo?$AAt?$AA?5?$AAe?$AAn?$AAo?$AAu?$AAg?$AAh?$AA?5?$AAs?$AAp?$AAa?$AAc?$AAe?$AA?5?$AAf?$AAo?$AAr?$AA?5?$AAt?$AAh@ 000000018001ae20     LIBCMT:crt0msg.obj
 0002:00001e80       ??_C@_1FK@BEOGODMC@?$AAR?$AA6?$AA0?$AA1?$AA7?$AA?$AN?$AA?6?$AA?9?$AA?5?$AAu?$AAn?$AAe?$AAx?$AAp?$AAe?$AAc?$AAt?$AAe?$AAd?$AA?5?$AAm?$AAu?$AAl?$AAt?$AAi?$AAt?$AAh?$AAr?$AAe?$AAa?$AAd?$AA?5@ 000000018001ae80     LIBCMT:crt0msg.obj
 0002:00001ee0       ??_C@_1EC@JIBHAOPH@?$AAR?$AA6?$AA0?$AA1?$AA8?$AA?$AN?$AA?6?$AA?9?$AA?5?$AAu?$AAn?$AAe?$AAx?$AAp?$AAe?$AAc?$AAt?$AAe?$AAd?$AA?5?$AAh?$AAe?$AAa?$AAp?$AA?5?$AAe?$AAr?$AAr?$AAo?$AAr?$AA?$AN?$AA?6@ 000000018001aee0     LIBCMT:crt0msg.obj
 0002:00001f30       ??_C@_1FC@ECHBIFBC@?$AAR?$AA6?$AA0?$AA1?$AA9?$AA?$AN?$AA?6?$AA?9?$AA?5?$AAu?$AAn?$AAa?$AAb?$AAl?$AAe?$AA?5?$AAt?$AAo?$AA?5?$AAo?$AAp?$AAe?$AAn?$AA?5?$AAc?$AAo?$AAn?$AAs?$AAo?$AAl?$AAe?$AA?5@ 000000018001af30     LIBCMT:crt0msg.obj
 0002:00001f90       ??_C@_1GK@FHCKBEFA@?$AAR?$AA6?$AA0?$AA2?$AA4?$AA?$AN?$AA?6?$AA?9?$AA?5?$AAn?$AAo?$AAt?$AA?5?$AAe?$AAn?$AAo?$AAu?$AAg?$AAh?$AA?5?$AAs?$AAp?$AAa?$AAc?$AAe?$AA?5?$AAf?$AAo?$AAr?$AA?5?$AA_?$AAo@ 000000018001af90     LIBCMT:crt0msg.obj
 0002:00002000       ??_C@_1EM@MAADIHMB@?$AAR?$AA6?$AA0?$AA2?$AA5?$AA?$AN?$AA?6?$AA?9?$AA?5?$AAp?$AAu?$AAr?$AAe?$AA?5?$AAv?$AAi?$AAr?$AAt?$AAu?$AAa?$AAl?$AA?5?$AAf?$AAu?$AAn?$AAc?$AAt?$AAi?$AAo?$AAn?$AA?5?$AAc@ 000000018001b000     LIBCMT:crt0msg.obj
 0002:00002050       ??_C@_1GK@MCAAGJMO@?$AAR?$AA6?$AA0?$AA2?$AA6?$AA?$AN?$AA?6?$AA?9?$AA?5?$AAn?$AAo?$AAt?$AA?5?$AAe?$AAn?$AAo?$AAu?$AAg?$AAh?$AA?5?$AAs?$AAp?$AAa?$AAc?$AAe?$AA?5?$AAf?$AAo?$AAr?$AA?5?$AAs?$AAt@ 000000018001b050     LIBCMT:crt0msg.obj
 0002:000020c0       ??_C@_1GK@MFGOKLAG@?$AAR?$AA6?$AA0?$AA2?$AA7?$AA?$AN?$AA?6?$AA?9?$AA?5?$AAn?$AAo?$AAt?$AA?5?$AAe?$AAn?$AAo?$AAu?$AAg?$AAh?$AA?5?$AAs?$AAp?$AAa?$AAc?$AAe?$AA?5?$AAf?$AAo?$AAr?$AA?5?$AAl?$AAo@ 000000018001b0c0     LIBCMT:crt0msg.obj
 0002:00002130       ??_C@_1EK@HHFLMAOL@?$AAR?$AA6?$AA0?$AA2?$AA8?$AA?$AN?$AA?6?$AA?9?$AA?5?$AAu?$AAn?$AAa?$AAb?$AAl?$AAe?$AA?5?$AAt?$AAo?$AA?5?$AAi?$AAn?$AAi?$AAt?$AAi?$AAa?$AAl?$AAi?$AAz?$AAe?$AA?5?$AAh?$AAe@ 000000018001b130     LIBCMT:crt0msg.obj
 0002:00002180       ??_C@_1DO@BMFCDCD@?$AAR?$AA6?$AA0?$AA3?$AA0?$AA?$AN?$AA?6?$AA?9?$AA?5?$AAC?$AAR?$AAT?$AA?5?$AAn?$AAo?$AAt?$AA?5?$AAi?$AAn?$AAi?$AAt?$AAi?$AAa?$AAl?$AAi?$AAz?$AAe?$AAd?$AA?$AN?$AA?6?$AA?$AA@ 000000018001b180     LIBCMT:crt0msg.obj
 0002:000021c0       ??_C@_1MG@ENCOOIDF@?$AAR?$AA6?$AA0?$AA3?$AA1?$AA?$AN?$AA?6?$AA?9?$AA?5?$AAA?$AAt?$AAt?$AAe?$AAm?$AAp?$AAt?$AA?5?$AAt?$AAo?$AA?5?$AAi?$AAn?$AAi?$AAt?$AAi?$AAa?$AAl?$AAi?$AAz?$AAe?$AA?5?$AAt@ 000000018001b1c0     LIBCMT:crt0msg.obj
 0002:00002290       ??_C@_1GG@GOPILAJP@?$AAR?$AA6?$AA0?$AA3?$AA2?$AA?$AN?$AA?6?$AA?9?$AA?5?$AAn?$AAo?$AAt?$AA?5?$AAe?$AAn?$AAo?$AAu?$AAg?$AAh?$AA?5?$AAs?$AAp?$AAa?$AAc?$AAe?$AA?5?$AAf?$AAo?$AAr?$AA?5?$AAl?$AAo@ 000000018001b290     LIBCMT:crt0msg.obj
 0002:00002300       ??_C@_1BOO@KGEDBGAJ@?$AAR?$AA6?$AA0?$AA3?$AA3?$AA?$AN?$AA?6?$AA?9?$AA?5?$AAA?$AAt?$AAt?$AAe?$AAm?$AAp?$AAt?$AA?5?$AAt?$AAo?$AA?5?$AAu?$AAs?$AAe?$AA?5?$AAM?$AAS?$AAI?$AAL?$AA?5?$AAc?$AAo?$AAd@ 000000018001b300     LIBCMT:crt0msg.obj
 0002:000024f0       ??_C@_1GG@MKFPEKFO@?$AAR?$AA6?$AA0?$AA3?$AA4?$AA?$AN?$AA?6?$AA?9?$AA?5?$AAi?$AAn?$AAc?$AAo?$AAn?$AAs?$AAi?$AAs?$AAt?$AAe?$AAn?$AAt?$AA?5?$AAo?$AAn?$AAe?$AAx?$AAi?$AAt?$AA?5?$AAb?$AAe?$AAg@ 000000018001b4f0     LIBCMT:crt0msg.obj
 0002:00002558       ??_C@_1BO@BFCDCGC@?$AAD?$AAO?$AAM?$AAA?$AAI?$AAN?$AA?5?$AAe?$AAr?$AAr?$AAo?$AAr?$AA?$AN?$AA?6?$AA?$AA@ 000000018001b558     LIBCMT:crt0msg.obj
 0002:00002578       ??_C@_1BK@KMOMNAAI@?$AAS?$AAI?$AAN?$AAG?$AA?5?$AAe?$AAr?$AAr?$AAo?$AAr?$AA?$AN?$AA?6?$AA?$AA@ 000000018001b578     LIBCMT:crt0msg.obj
 0002:00002598       ??_C@_1BM@JBBEPPHI@?$AAT?$AAL?$AAO?$AAS?$AAS?$AA?5?$AAe?$AAr?$AAr?$AAo?$AAr?$AA?$AN?$AA?6?$AA?$AA@ 000000018001b598     LIBCMT:crt0msg.obj
 0002:000025b4       ??_C@_15JNBOKNOG@?$AA?$AN?$AA?6?$AA?$AA@ 000000018001b5b4     LIBCMT:crt0msg.obj
 0002:000025c0       ??_C@_1BO@BKOMIGKJ@?$AAr?$AAu?$AAn?$AAt?$AAi?$AAm?$AAe?$AA?5?$AAe?$AAr?$AAr?$AAo?$AAr?$AA?5?$AA?$AA@ 000000018001b5c0     LIBCMT:crt0msg.obj
 0002:000025e0       ??_C@_1DE@JNGNBFGO@?$AAR?$AAu?$AAn?$AAt?$AAi?$AAm?$AAe?$AA?5?$AAE?$AAr?$AAr?$AAo?$AAr?$AA?$CB?$AA?6?$AA?6?$AAP?$AAr?$AAo?$AAg?$AAr?$AAa?$AAm?$AA?3?$AA?5?$AA?$AA@ 000000018001b5e0     LIBCMT:crt0msg.obj
 0002:00002618       ??_C@_1BG@GOEBHBDC@?$AAU?$AAS?$AAE?$AAR?$AA3?$AA2?$AA?4?$AAD?$AAL?$AAL?$AA?$AA@ 000000018001b618     LIBCMT:crtmboxw.obj
 0002:00002630       ??_C@_0M@DLDCCGNP@MessageBoxW?$AA@ 000000018001b630     LIBCMT:crtmboxw.obj
 0002:00002640       ??_C@_0BA@HNOPNCHB@GetActiveWindow?$AA@ 000000018001b640     LIBCMT:crtmboxw.obj
 0002:00002650       ??_C@_0BD@HHGDFDBJ@GetLastActivePopup?$AA@ 000000018001b650     LIBCMT:crtmboxw.obj
 0002:00002668       ??_C@_0BK@DEKFELLI@GetUserObjectInformationW?$AA@ 000000018001b668     LIBCMT:crtmboxw.obj
 0002:00002688       ??_C@_0BI@DFKBFLJE@GetProcessWindowStation?$AA@ 000000018001b688     LIBCMT:crtmboxw.obj
 0002:000026a0       ??_C@_06OJHGLDPL@?$CInull?$CJ?$AA@ 000000018001b6a0     LIBCMT:output.obj
 0002:000026a8       ??_C@_1O@CEDCILHN@?$AA?$CI?$AAn?$AAu?$AAl?$AAl?$AA?$CJ?$AA?$AA@ 000000018001b6a8     LIBCMT:output.obj
 0002:000026c0       __lookuptable              000000018001b6c0     LIBCMT:output.obj
 0002:00002720       ??_C@_1BK@MGMFAEKH@?$AAk?$AAe?$AAr?$AAn?$AAe?$AAl?$AA3?$AA2?$AA?4?$AAd?$AAl?$AAl?$AA?$AA@ 000000018001b720     LIBCMT:winapisupp.obj
 0002:00002740       ??_C@_08KNHFBNJ@FlsAlloc?$AA@ 000000018001b740     LIBCMT:winapisupp.obj
 0002:00002750       ??_C@_07PEJMOBNF@FlsFree?$AA@ 000000018001b750     LIBCMT:winapisupp.obj
 0002:00002758       ??_C@_0M@GDNOONDI@FlsGetValue?$AA@ 000000018001b758     LIBCMT:winapisupp.obj
 0002:00002768       ??_C@_0M@JCPCPOEF@FlsSetValue?$AA@ 000000018001b768     LIBCMT:winapisupp.obj
 0002:00002778       ??_C@_0BM@HCFOFFN@InitializeCriticalSectionEx?$AA@ 000000018001b778     LIBCMT:winapisupp.obj
 0002:00002798       ??_C@_0P@DLHPPCNH@CreateEventExW?$AA@ 000000018001b798     LIBCMT:winapisupp.obj
 0002:000027a8       ??_C@_0BD@KIEEOEEH@CreateSemaphoreExW?$AA@ 000000018001b7a8     LIBCMT:winapisupp.obj
 0002:000027c0       ??_C@_0BI@BKLFFAPO@SetThreadStackGuarantee?$AA@ 000000018001b7c0     LIBCMT:winapisupp.obj
 0002:000027d8       ??_C@_0BG@OGFAJCKC@CreateThreadpoolTimer?$AA@ 000000018001b7d8     LIBCMT:winapisupp.obj
 0002:000027f0       ??_C@_0BD@LPLEMMDI@SetThreadpoolTimer?$AA@ 000000018001b7f0     LIBCMT:winapisupp.obj
 0002:00002808       ??_C@_0CA@FMNJENH@WaitForThreadpoolTimerCallbacks?$AA@ 000000018001b808     LIBCMT:winapisupp.obj
 0002:00002828       ??_C@_0BF@DCFCCNOC@CloseThreadpoolTimer?$AA@ 000000018001b828     LIBCMT:winapisupp.obj
 0002:00002840       ??_C@_0BF@FLABGKKM@CreateThreadpoolWait?$AA@ 000000018001b840     LIBCMT:winapisupp.obj
 0002:00002858       ??_C@_0BC@MGCOHNA@SetThreadpoolWait?$AA@ 000000018001b858     LIBCMT:winapisupp.obj
 0002:00002870       ??_C@_0BE@OCIOMIMP@CloseThreadpoolWait?$AA@ 000000018001b870     LIBCMT:winapisupp.obj
 0002:00002888       ??_C@_0BJ@LKGHFHBO@FlushProcessWriteBuffers?$AA@ 000000018001b888     LIBCMT:winapisupp.obj
 0002:000028a8       ??_C@_0BP@KALKKPMO@FreeLibraryWhenCallbackReturns?$AA@ 000000018001b8a8     LIBCMT:winapisupp.obj
 0002:000028c8       ??_C@_0BK@DFNBACLA@GetCurrentProcessorNumber?$AA@ 000000018001b8c8     LIBCMT:winapisupp.obj
 0002:000028e8       ??_C@_0BP@KHGALBC@GetLogicalProcessorInformation?$AA@ 000000018001b8e8     LIBCMT:winapisupp.obj
 0002:00002908       ??_C@_0BE@FKKLLFLM@CreateSymbolicLinkW?$AA@ 000000018001b908     LIBCMT:winapisupp.obj
 0002:00002920       ??_C@_0BJ@OHNKDLIJ@SetDefaultDllDirectories?$AA@ 000000018001b920     LIBCMT:winapisupp.obj
 0002:00002940       ??_C@_0BE@LJANKFHF@EnumSystemLocalesEx?$AA@ 000000018001b940     LIBCMT:winapisupp.obj
 0002:00002958       ??_C@_0BA@IHGNDAEB@CompareStringEx?$AA@ 000000018001b958     LIBCMT:winapisupp.obj
 0002:00002968       ??_C@_0BA@EPCJIIPD@GetDateFormatEx?$AA@ 000000018001b968     LIBCMT:winapisupp.obj
 0002:00002978       ??_C@_0BA@ONOKGCMP@GetLocaleInfoEx?$AA@ 000000018001b978     LIBCMT:winapisupp.obj
 0002:00002988       ??_C@_0BA@CIJJKCJJ@GetTimeFormatEx?$AA@ 000000018001b988     LIBCMT:winapisupp.obj
 0002:00002998       ??_C@_0BJ@PBCCBIPI@GetUserDefaultLocaleName?$AA@ 000000018001b998     LIBCMT:winapisupp.obj
 0002:000029b8       ??_C@_0BC@CELBKLLA@IsValidLocaleName?$AA@ 000000018001b9b8     LIBCMT:winapisupp.obj
 0002:000029d0       ??_C@_0O@KKBNKAPF@LCMapStringEx?$AA@ 000000018001b9d0     LIBCMT:winapisupp.obj
 0002:000029e0       ??_C@_0BE@JOGNEJCI@GetCurrentPackageId?$AA@ 000000018001b9e0     LIBCMT:winapisupp.obj
 0002:000029f8       ??_C@_0P@CDHHOHKP@GetTickCount64?$AA@ 000000018001b9f8     LIBCMT:winapisupp.obj
 0002:00002a08       ??_C@_0BO@KPCLFDJJ@GetFileInformationByHandleExW?$AA@ 000000018001ba08     LIBCMT:winapisupp.obj
 0002:00002a28       ??_C@_0BM@MHIDLABK@SetFileInformationByHandleW?$AA@ 000000018001ba28     LIBCMT:winapisupp.obj
 0002:00002a68       ??_C@_1M@HPNHIDJI@?$AAj?$AAa?$AA?9?$AAJ?$AAP?$AA?$AA@ 000000018001ba68     LIBCMT:mbctype.obj
 0002:00002a78       ??_C@_1M@BIBDDEMK@?$AAz?$AAh?$AA?9?$AAC?$AAN?$AA?$AA@ 000000018001ba78     LIBCMT:mbctype.obj
 0002:00002a88       ??_C@_1M@JLOOOEGK@?$AAk?$AAo?$AA?9?$AAK?$AAR?$AA?$AA@ 000000018001ba88     LIBCMT:mbctype.obj
 0002:00002a98       ??_C@_1M@CLNBBOPM@?$AAz?$AAh?$AA?9?$AAT?$AAW?$AA?$AA@ 000000018001ba98     LIBCMT:mbctype.obj
 0002:00002aa4       ??_C@_03KOEHGMDN@Sun?$AA@  000000018001baa4     LIBCMT:nlsdata.obj
 0002:00002aa8       ??_C@_03PDAGKDH@Mon?$AA@   000000018001baa8     LIBCMT:nlsdata.obj
 0002:00002aac       ??_C@_03NAGEINEP@Tue?$AA@  000000018001baac     LIBCMT:nlsdata.obj
 0002:00002ab0       ??_C@_03MHOMLAJA@Wed?$AA@  000000018001bab0     LIBCMT:nlsdata.obj
 0002:00002ab4       ??_C@_03IOFIKPDN@Thu?$AA@  000000018001bab4     LIBCMT:nlsdata.obj
 0002:00002ab8       ??_C@_03IDIOELNC@Fri?$AA@  000000018001bab8     LIBCMT:nlsdata.obj
 0002:00002abc       ??_C@_03FEFJNEK@Sat?$AA@   000000018001babc     LIBCMT:nlsdata.obj
 0002:00002ac0       ??_C@_06OOPIFAJ@Sunday?$AA@ 000000018001bac0     LIBCMT:nlsdata.obj
 0002:00002ac8       ??_C@_06JLEDEDGH@Monday?$AA@ 000000018001bac8     LIBCMT:nlsdata.obj
 0002:00002ad0       ??_C@_07BAAGCFCM@Tuesday?$AA@ 000000018001bad0     LIBCMT:nlsdata.obj
 0002:00002ad8       ??_C@_09DLIGFAKA@Wednesday?$AA@ 000000018001bad8     LIBCMT:nlsdata.obj
 0002:00002ae8       ??_C@_08HACCIKIA@Thursday?$AA@ 000000018001bae8     LIBCMT:nlsdata.obj
 0002:00002af4       ??_C@_06JECMNKMI@Friday?$AA@ 000000018001baf4     LIBCMT:nlsdata.obj
 0002:00002b00       ??_C@_08INBOOONO@Saturday?$AA@ 000000018001bb00     LIBCMT:nlsdata.obj
 0002:00002b0c       ??_C@_03JIHJHPIE@Jan?$AA@  000000018001bb0c     LIBCMT:nlsdata.obj
 0002:00002b10       ??_C@_03HJBDCHOM@Feb?$AA@  000000018001bb10     LIBCMT:nlsdata.obj
 0002:00002b14       ??_C@_03ODNJBKGA@Mar?$AA@  000000018001bb14     LIBCMT:nlsdata.obj
 0002:00002b18       ??_C@_03LEOLGMJP@Apr?$AA@  000000018001bb18     LIBCMT:nlsdata.obj
 0002:00002b1c       ??_C@_03CNMDKL@May?$AA@    000000018001bb1c     LIBCMT:nlsdata.obj
 0002:00002b20       ??_C@_03IDFGHECI@Jun?$AA@  000000018001bb20     LIBCMT:nlsdata.obj
 0002:00002b24       ??_C@_03LBGABGKK@Jul?$AA@  000000018001bb24     LIBCMT:nlsdata.obj
 0002:00002b28       ??_C@_03IFJFEIGA@Aug?$AA@  000000018001bb28     LIBCMT:nlsdata.obj
 0002:00002b2c       ??_C@_03GGCAPAJC@Sep?$AA@  000000018001bb2c     LIBCMT:nlsdata.obj
 0002:00002b30       ??_C@_03BMAOKBAD@Oct?$AA@  000000018001bb30     LIBCMT:nlsdata.obj
 0002:00002b34       ??_C@_03JPJOFNIA@Nov?$AA@  000000018001bb34     LIBCMT:nlsdata.obj
 0002:00002b38       ??_C@_03MKABNOCG@Dec?$AA@  000000018001bb38     LIBCMT:nlsdata.obj
 0002:00002b40       ??_C@_07CGJPFGJA@January?$AA@ 000000018001bb40     LIBCMT:nlsdata.obj
 0002:00002b48       ??_C@_08GNJGEPFN@February?$AA@ 000000018001bb48     LIBCMT:nlsdata.obj
 0002:00002b54       ??_C@_05HPCKOFNC@March?$AA@ 000000018001bb54     LIBCMT:nlsdata.obj
 0002:00002b5c       ??_C@_05DMJDNLEJ@April?$AA@ 000000018001bb5c     LIBCMT:nlsdata.obj
 0002:00002b64       ??_C@_04CNLMGBGM@June?$AA@ 000000018001bb64     LIBCMT:nlsdata.obj
 0002:00002b6c       ??_C@_04MIEPOIFP@July?$AA@ 000000018001bb6c     LIBCMT:nlsdata.obj
 0002:00002b74       ??_C@_06LBBHFDDG@August?$AA@ 000000018001bb74     LIBCMT:nlsdata.obj
 0002:00002b80       ??_C@_09BHHEALKD@September?$AA@ 000000018001bb80     LIBCMT:nlsdata.obj
 0002:00002b90       ??_C@_07JJNFCEND@October?$AA@ 000000018001bb90     LIBCMT:nlsdata.obj
 0002:00002b98       ??_C@_08HCHEGEOA@November?$AA@ 000000018001bb98     LIBCMT:nlsdata.obj
 0002:00002ba8       ??_C@_08EDHMEBNP@December?$AA@ 000000018001bba8     LIBCMT:nlsdata.obj
 0002:00002bb4       ??_C@_02DEDBPAFC@AM?$AA@   000000018001bbb4     LIBCMT:nlsdata.obj
 0002:00002bb8       ??_C@_02CJNFDJBF@PM?$AA@   000000018001bbb8     LIBCMT:nlsdata.obj
 0002:00002bc0       ??_C@_08BPBNCDIB@MM?1dd?1yy?$AA@ 000000018001bbc0     LIBCMT:nlsdata.obj
 0002:00002bd0       ??_C@_0BE@CKGJFCPC@dddd?0?5MMMM?5dd?0?5yyyy?$AA@ 000000018001bbd0     LIBCMT:nlsdata.obj
 0002:00002be8       ??_C@_08JCCMCCIL@HH?3mm?3ss?$AA@ 000000018001bbe8     LIBCMT:nlsdata.obj
 0002:00002bf8       ??_C@_17MBGCMIPB@?$AAS?$AAu?$AAn?$AA?$AA@ 000000018001bbf8     LIBCMT:nlsdata.obj
 0002:00002c00       ??_C@_17KBOMKBF@?$AAM?$AAo?$AAn?$AA?$AA@ 000000018001bc00     LIBCMT:nlsdata.obj
 0002:00002c08       ??_C@_17BMKGEGOJ@?$AAT?$AAu?$AAe?$AA?$AA@ 000000018001bc08     LIBCMT:nlsdata.obj
 0002:00002c10       ??_C@_17CJEDCEPE@?$AAW?$AAe?$AAd?$AA?$AA@ 000000018001bc10     LIBCMT:nlsdata.obj
 0002:00002c18       ??_C@_17PDPHAADD@?$AAT?$AAh?$AAu?$AA?$AA@ 000000018001bc18     LIBCMT:nlsdata.obj
 0002:00002c20       ??_C@_17HFOLPPLP@?$AAF?$AAr?$AAi?$AA?$AA@ 000000018001bc20     LIBCMT:nlsdata.obj
 0002:00002c28       ??_C@_17GGIBDPIH@?$AAS?$AAa?$AAt?$AA?$AA@ 000000018001bc28     LIBCMT:nlsdata.obj
 0002:00002c30       ??_C@_1O@IHNHDHPB@?$AAS?$AAu?$AAn?$AAd?$AAa?$AAy?$AA?$AA@ 000000018001bc30     LIBCMT:nlsdata.obj
 0002:00002c40       ??_C@_1O@MMNBFLIA@?$AAM?$AAo?$AAn?$AAd?$AAa?$AAy?$AA?$AA@ 000000018001bc40     LIBCMT:nlsdata.obj
 0002:00002c50       ??_C@_1BA@ENFBFFEK@?$AAT?$AAu?$AAe?$AAs?$AAd?$AAa?$AAy?$AA?$AA@ 000000018001bc50     LIBCMT:nlsdata.obj
 0002:00002c60       ??_C@_1BE@EBOGMDOH@?$AAW?$AAe?$AAd?$AAn?$AAe?$AAs?$AAd?$AAa?$AAy?$AA?$AA@ 000000018001bc60     LIBCMT:nlsdata.obj
 0002:00002c78       ??_C@_1BC@HHMNLIHE@?$AAT?$AAh?$AAu?$AAr?$AAs?$AAd?$AAa?$AAy?$AA?$AA@ 000000018001bc78     LIBCMT:nlsdata.obj
 0002:00002c90       ??_C@_1O@PDICJHAG@?$AAF?$AAr?$AAi?$AAd?$AAa?$AAy?$AA?$AA@ 000000018001bc90     LIBCMT:nlsdata.obj
 0002:00002ca0       ??_C@_1BC@ENMNNPAJ@?$AAS?$AAa?$AAt?$AAu?$AAr?$AAd?$AAa?$AAy?$AA?$AA@ 000000018001bca0     LIBCMT:nlsdata.obj
 0002:00002cb8       ??_C@_17DKNBKCHM@?$AAJ?$AAa?$AAn?$AA?$AA@ 000000018001bcb8     LIBCMT:nlsdata.obj
 0002:00002cc0       ??_C@_17LMDJEKJN@?$AAF?$AAe?$AAb?$AA?$AA@ 000000018001bcc0     LIBCMT:nlsdata.obj
 0002:00002cc8       ??_C@_17CKNLEDEC@?$AAM?$AAa?$AAr?$AA?$AA@ 000000018001bcc8     LIBCMT:nlsdata.obj
 0002:00002cd0       ??_C@_17LFPOIHDD@?$AAA?$AAp?$AAr?$AA?$AA@ 000000018001bcd0     LIBCMT:nlsdata.obj
 0002:00002cd8       ??_C@_17PNNKMEED@?$AAM?$AAa?$AAy?$AA?$AA@ 000000018001bcd8     LIBCMT:nlsdata.obj
 0002:00002ce0       ??_C@_17KCJGOCPB@?$AAJ?$AAu?$AAn?$AA?$AA@ 000000018001bce0     LIBCMT:nlsdata.obj
 0002:00002ce8       ??_C@_17IJPCKHK@?$AAJ?$AAu?$AAl?$AA?$AA@ 000000018001bce8     LIBCMT:nlsdata.obj
 0002:00002cf0       ??_C@_17ICPELBCN@?$AAA?$AAu?$AAg?$AA?$AA@ 000000018001bcf0     LIBCMT:nlsdata.obj
 0002:00002cf8       ??_C@_17HCHCOKMG@?$AAS?$AAe?$AAp?$AA?$AA@ 000000018001bcf8     LIBCMT:nlsdata.obj
 0002:00002d00       ??_C@_17FNLKOI@?$AAO?$AAc?$AAt?$AA?$AA@ 000000018001bd00     LIBCMT:nlsdata.obj
 0002:00002d08       ??_C@_17BBDMLCIG@?$AAN?$AAo?$AAv?$AA?$AA@ 000000018001bd08     LIBCMT:nlsdata.obj
 0002:00002d10       ??_C@_17EGKACKIF@?$AAD?$AAe?$AAc?$AA?$AA@ 000000018001bd10     LIBCMT:nlsdata.obj
 0002:00002d18       ??_C@_1BA@EFMEIEBA@?$AAJ?$AAa?$AAn?$AAu?$AAa?$AAr?$AAy?$AA?$AA@ 000000018001bd18     LIBCMT:nlsdata.obj
 0002:00002d28       ??_C@_1BC@JGDDFFAM@?$AAF?$AAe?$AAb?$AAr?$AAu?$AAa?$AAr?$AAy?$AA?$AA@ 000000018001bd28     LIBCMT:nlsdata.obj
 0002:00002d40       ??_C@_1M@IKEENEDF@?$AAM?$AAa?$AAr?$AAc?$AAh?$AA?$AA@ 000000018001bd40     LIBCMT:nlsdata.obj
 0002:00002d50       ??_C@_1M@GJNLMHFD@?$AAA?$AAp?$AAr?$AAi?$AAl?$AA?$AA@ 000000018001bd50     LIBCMT:nlsdata.obj
 0002:00002d60       ??_C@_19EPFLPGAP@?$AAJ?$AAu?$AAn?$AAe?$AA?$AA@ 000000018001bd60     LIBCMT:nlsdata.obj
 0002:00002d70       ??_C@_19BIFMLPCD@?$AAJ?$AAu?$AAl?$AAy?$AA?$AA@ 000000018001bd70     LIBCMT:nlsdata.obj
 0002:00002d80       ??_C@_1O@PAHLKOAC@?$AAA?$AAu?$AAg?$AAu?$AAs?$AAt?$AA?$AA@ 000000018001bd80     LIBCMT:nlsdata.obj
 0002:00002d90       ??_C@_1BE@DKAAMBJL@?$AAS?$AAe?$AAp?$AAt?$AAe?$AAm?$AAb?$AAe?$AAr?$AA?$AA@ 000000018001bd90     LIBCMT:nlsdata.obj
 0002:00002da8       ??_C@_1BA@EPANDLNG@?$AAO?$AAc?$AAt?$AAo?$AAb?$AAe?$AAr?$AA?$AA@ 000000018001bda8     LIBCMT:nlsdata.obj
 0002:00002db8       ??_C@_1BC@BGLIFPF@?$AAN?$AAo?$AAv?$AAe?$AAm?$AAb?$AAe?$AAr?$AA?$AA@ 000000018001bdb8     LIBCMT:nlsdata.obj
 0002:00002dd0       ??_C@_1BC@FEMKIFH@?$AAD?$AAe?$AAc?$AAe?$AAm?$AAb?$AAe?$AAr?$AA?$AA@ 000000018001bdd0     LIBCMT:nlsdata.obj
 0002:00002de4       ??_C@_15ODEHAHHF@?$AAA?$AAM?$AA?$AA@ 000000018001bde4     LIBCMT:nlsdata.obj
 0002:00002dec       ??_C@_15CLMNNGEL@?$AAP?$AAM?$AA?$AA@ 000000018001bdec     LIBCMT:nlsdata.obj
 0002:00002df8       ??_C@_1BC@IEBCMHCM@?$AAM?$AAM?$AA?1?$AAd?$AAd?$AA?1?$AAy?$AAy?$AA?$AA@ 000000018001bdf8     LIBCMT:nlsdata.obj
 0002:00002e10       ??_C@_1CI@KNAKOEBC@?$AAd?$AAd?$AAd?$AAd?$AA?0?$AA?5?$AAM?$AAM?$AAM?$AAM?$AA?5?$AAd?$AAd?$AA?0?$AA?5?$AAy?$AAy?$AAy?$AAy?$AA?$AA@ 000000018001be10     LIBCMT:nlsdata.obj
 0002:00002e38       ??_C@_1BC@GDGBMEMK@?$AAH?$AAH?$AA?3?$AAm?$AAm?$AA?3?$AAs?$AAs?$AA?$AA@ 000000018001be38     LIBCMT:nlsdata.obj
 0002:00002e50       ??_C@_1M@BMHNFIME@?$AAe?$AAn?$AA?9?$AAU?$AAS?$AA?$AA@ 000000018001be50     LIBCMT:nlsdata.obj
 0002:00002ee0       _XcptActTab                000000018001bee0     LIBCMT:winxfltr.obj
 0002:00002fa0       _XcptActTabCount           000000018001bfa0     LIBCMT:winxfltr.obj
 0002:00002fa4       _XcptActTabSize            000000018001bfa4     LIBCMT:winxfltr.obj
 0002:00002fa8       _First_FPE_Indx            000000018001bfa8     LIBCMT:winxfltr.obj
 0002:00002fac       _Num_FPE                   000000018001bfac     LIBCMT:winxfltr.obj
 0002:00002fb0       _pDestructExceptionObject  000000018001bfb0     LIBCMT:frame.obj
 0002:00002fc0       ??_7bad_exception@std@@6B@ 000000018001bfc0     LIBCMT:frame.obj
 0002:00002fd0       ??_C@_0O@DPKOEFFH@bad?5exception?$AA@ 000000018001bfd0     LIBCMT:frame.obj
 0002:00002fe0       ??_C@_05KLBDPFGC@e?$CL000?$AA@ 000000018001bfe0     LIBCMT:cvt.obj
 0002:00002fe8       __real@0000000000000000    000000018001bfe8     LIBCMT:cvt.obj
 0002:00002ff0       LcidToLocaleNameTable      000000018001bff0     LIBCMT:winapinls.obj
 0002:00003e30       LocaleNameToIndexTable     000000018001ce30     LIBCMT:winapinls.obj
 0002:00004c70       ??_C@_15EMKDOKLE@?$AAa?$AAr?$AA?$AA@ 000000018001dc70     LIBCMT:winapinls.obj
 0002:00004c78       ??_C@_15KNPADPLH@?$AAb?$AAg?$AA?$AA@ 000000018001dc78     LIBCMT:winapinls.obj
 0002:00004c80       ??_C@_15EDMHLDMO@?$AAc?$AAa?$AA?$AA@ 000000018001dc80     LIBCMT:winapinls.obj
 0002:00004c88       ??_C@_1O@BPEAJADD@?$AAz?$AAh?$AA?9?$AAC?$AAH?$AAS?$AA?$AA@ 000000018001dc88     LIBCMT:winapinls.obj
 0002:00004c98       ??_C@_15LJNHCMNK@?$AAc?$AAs?$AA?$AA@ 000000018001dc98     LIBCMT:winapinls.obj
 0002:00004ca0       ??_C@_15FOMCIDHG@?$AAd?$AAa?$AA?$AA@ 000000018001dca0     LIBCMT:winapinls.obj
 0002:00004ca8       ??_C@_15NBKABECB@?$AAd?$AAe?$AA?$AA@ 000000018001dca8     LIBCMT:winapinls.obj
 0002:00004cb0       ??_C@_15GHPEIIAO@?$AAe?$AAl?$AA?$AA@ 000000018001dcb0     LIBCMT:winapinls.obj
 0002:00004cb8       ??_C@_15MNPNEAIF@?$AAe?$AAn?$AA?$AA@ 000000018001dcb8     LIBCMT:winapinls.obj
 0002:00004cc0       ??_C@_15GPIOMPMH@?$AAe?$AAs?$AA?$AA@ 000000018001dcc0     LIBCMT:winapinls.obj
 0002:00004cc8       ??_C@_15NGLOAKJC@?$AAf?$AAi?$AA?$AA@ 000000018001dcc8     LIBCMT:winapinls.obj
 0002:00004cd0       ??_C@_15FBKGNKAM@?$AAf?$AAr?$AA?$AA@ 000000018001dcd0     LIBCMT:winapinls.obj
 0002:00004cd8       ??_C@_15KGGCNEFK@?$AAh?$AAe?$AA?$AA@ 000000018001dcd8     LIBCMT:winapinls.obj
 0002:00004ce0       ??_C@_15PGHLIDMF@?$AAh?$AAu?$AA?$AA@ 000000018001dce0     LIBCMT:winapinls.obj
 0002:00004ce8       ??_C@_15BIEMAPLM@?$AAi?$AAs?$AA?$AA@ 000000018001dce8     LIBCMT:winapinls.obj
 0002:00004cf0       ??_C@_15IFJLDHAF@?$AAi?$AAt?$AA?$AA@ 000000018001dcf0     LIBCMT:winapinls.obj
 0002:00004cf8       ??_C@_15GEMIOCAG@?$AAj?$AAa?$AA?$AA@ 000000018001dcf8     LIBCMT:winapinls.obj
 0002:00004d00       ??_C@_15EPELEGJA@?$AAk?$AAo?$AA?$AA@ 000000018001dd00     LIBCMT:winapinls.obj
 0002:00004d08       ??_C@_15NDDHIMN@?$AAn?$AAl?$AA?$AA@ 000000018001dd08     LIBCMT:winapinls.obj
 0002:00004d10       ??_C@_15BPIGNHCD@?$AAn?$AAo?$AA?$AA@ 000000018001dd10     LIBCMT:winapinls.obj
 0002:00004d18       ??_C@_15DEOPBLCG@?$AAp?$AAl?$AA?$AA@ 000000018001dd18     LIBCMT:winapinls.obj
 0002:00004d20       ??_C@_15KBECGEFG@?$AAp?$AAt?$AA?$AA@ 000000018001dd20     LIBCMT:winapinls.obj
 0002:00004d28       ??_C@_15GLJCBFMD@?$AAr?$AAo?$AA?$AA@ 000000018001dd28     LIBCMT:winapinls.obj
 0002:00004d30       ??_C@_15FEDGKCDI@?$AAr?$AAu?$AA?$AA@ 000000018001dd30     LIBCMT:winapinls.obj
 0002:00004d38       ??_C@_15GLKMLLHM@?$AAh?$AAr?$AA?$AA@ 000000018001dd38     LIBCMT:winapinls.obj
 0002:00004d40       ??_C@_15CPKMFBDB@?$AAs?$AAk?$AA?$AA@ 000000018001dd40     LIBCMT:winapinls.obj
 0002:00004d48       ??_C@_15BAAIOGMK@?$AAs?$AAq?$AA?$AA@ 000000018001dd48     LIBCMT:winapinls.obj
 0002:00004d50       ??_C@_15INNPNOHD@?$AAs?$AAv?$AA?$AA@ 000000018001dd50     LIBCMT:winapinls.obj
 0002:00004d58       ??_C@_15CABMMOGH@?$AAt?$AAh?$AA?$AA@ 000000018001dd58     LIBCMT:winapinls.obj
 0002:00004d60       ??_C@_15BPLIHJJM@?$AAt?$AAr?$AA?$AA@ 000000018001dd60     LIBCMT:winapinls.obj
 0002:00004d68       ??_C@_15NEOEKKDJ@?$AAu?$AAr?$AA?$AA@ 000000018001dd68     LIBCMT:winapinls.obj
 0002:00004d70       ??_C@_15NFICGAJK@?$AAi?$AAd?$AA?$AA@ 000000018001dd70     LIBCMT:winapinls.obj
 0002:00004d78       ??_C@_15PJPFLCCM@?$AAu?$AAk?$AA?$AA@ 000000018001dd78     LIBCMT:winapinls.obj
 0002:00004d80       ??_C@_15HPJPHDM@?$AAb?$AAe?$AA?$AA@ 000000018001dd80     LIBCMT:winapinls.obj
 0002:00004d88       ??_C@_15LCHLGJII@?$AAs?$AAl?$AA?$AA@ 000000018001dd88     LIBCMT:winapinls.obj
 0002:00004d90       ??_C@_15PCFJPHHO@?$AAe?$AAt?$AA?$AA@ 000000018001dd90     LIBCMT:winapinls.obj
 0002:00004d98       ??_C@_15HPFPGODN@?$AAl?$AAv?$AA?$AA@ 000000018001dd98     LIBCMT:winapinls.obj
 0002:00004da0       ??_C@_15NFFGKGLG@?$AAl?$AAt?$AA?$AA@ 000000018001dda0     LIBCMT:winapinls.obj
 0002:00004da8       ??_C@_15BDAKCCHN@?$AAf?$AAa?$AA?$AA@ 000000018001dda8     LIBCMT:winapinls.obj
 0002:00004db0       ??_C@_15NFGIAIAJ@?$AAv?$AAi?$AA?$AA@ 000000018001ddb0     LIBCMT:winapinls.obj
 0002:00004db8       ??_C@_15LMKNDMHN@?$AAh?$AAy?$AA?$AA@ 000000018001ddb8     LIBCMT:winapinls.obj
 0002:00004dc0       ??_C@_15IJBHMCFL@?$AAa?$AAz?$AA?$AA@ 000000018001ddc0     LIBCMT:winapinls.obj
 0002:00004dc8       ??_C@_15EKOFJABL@?$AAe?$AAu?$AA?$AA@ 000000018001ddc8     LIBCMT:winapinls.obj
 0002:00004dd0       ??_C@_15BGHADCNK@?$AAm?$AAk?$AA?$AA@ 000000018001ddd0     LIBCMT:winapinls.obj
 0002:00004dd8       ??_C@_15JDNICKHM@?$AAa?$AAf?$AA?$AA@ 000000018001ddd8     LIBCMT:winapinls.obj
 0002:00004de0       ??_C@_15KPJEDBKD@?$AAk?$AAa?$AA?$AA@ 000000018001dde0     LIBCMT:winapinls.obj
 0002:00004de8       ??_C@_15PDNFFFEO@?$AAf?$AAo?$AA?$AA@ 000000018001dde8     LIBCMT:winapinls.obj
 0002:00004df0       ??_C@_15OMLEGLOC@?$AAh?$AAi?$AA?$AA@ 000000018001ddf0     LIBCMT:winapinls.obj
 0002:00004df8       ??_C@_15IDNNENKK@?$AAm?$AAs?$AA?$AA@ 000000018001ddf8     LIBCMT:winapinls.obj
 0002:00004e00       ??_C@_15MACJNBMH@?$AAk?$AAk?$AA?$AA@ 000000018001de00     LIBCMT:winapinls.obj
 0002:00004e08       ??_C@_15DKDJEOND@?$AAk?$AAy?$AA?$AA@ 000000018001de08     LIBCMT:winapinls.obj
 0002:00004e10       ??_C@_15DFGDLJBG@?$AAs?$AAw?$AA?$AA@ 000000018001de10     LIBCMT:winapinls.obj
 0002:00004e18       ??_C@_15BBFAICNG@?$AAu?$AAz?$AA?$AA@ 000000018001de18     LIBCMT:winapinls.obj
 0002:00004e20       ??_C@_15DKNDCGEA@?$AAt?$AAt?$AA?$AA@ 000000018001de20     LIBCMT:winapinls.obj
 0002:00004e28       ??_C@_15MGIFMDPL@?$AAp?$AAa?$AA?$AA@ 000000018001de28     LIBCMT:winapinls.obj
 0002:00004e30       ??_C@_15HCNDBBA@?$AAg?$AAu?$AA?$AA@ 000000018001de30     LIBCMT:winapinls.obj
 0002:00004e38       ??_C@_15FNBEIBON@?$AAt?$AAa?$AA?$AA@ 000000018001de38     LIBCMT:winapinls.obj
 0002:00004e40       ??_C@_15NCHGBGLK@?$AAt?$AAe?$AA?$AA@ 000000018001de40     LIBCMT:winapinls.obj
 0002:00004e48       ??_C@_15PHPHCBPF@?$AAk?$AAn?$AA?$AA@ 000000018001de48     LIBCMT:winapinls.obj
 0002:00004e50       ??_C@_15DLGBCKMP@?$AAm?$AAr?$AA?$AA@ 000000018001de50     LIBCMT:winapinls.obj
 0002:00004e58       ??_C@_15EABBLBFF@?$AAs?$AAa?$AA?$AA@ 000000018001de58     LIBCMT:winapinls.obj
 0002:00004e60       ??_C@_15CBKOMCOI@?$AAm?$AAn?$AA?$AA@ 000000018001de60     LIBCMT:winapinls.obj
 0002:00004e68       ??_C@_15CKDMCJAF@?$AAg?$AAl?$AA?$AA@ 000000018001de68     LIBCMT:winapinls.obj
 0002:00004e70       ??_C@_17CNJFBPG@?$AAk?$AAo?$AAk?$AA?$AA@ 000000018001de70     LIBCMT:winapinls.obj
 0002:00004e78       ??_C@_17FFBJICPL@?$AAs?$AAy?$AAr?$AA?$AA@ 000000018001de78     LIBCMT:winapinls.obj
 0002:00004e80       ??_C@_17KPNDCPAF@?$AAd?$AAi?$AAv?$AA?$AA@ 000000018001de80     LIBCMT:winapinls.obj
 0002:00004e88       ??_C@_11LOCGONAA@?$AA?$AA@ 000000018001de88     LIBCMT:winapinls.obj
 0002:00004e90       ??_C@_1M@OKAHONE@?$AAa?$AAr?$AA?9?$AAS?$AAA?$AA?$AA@ 000000018001de90     LIBCMT:winapinls.obj
 0002:00004ea0       ??_C@_1M@FFFIGIGK@?$AAb?$AAg?$AA?9?$AAB?$AAG?$AA?$AA@ 000000018001dea0     LIBCMT:winapinls.obj
 0002:00004eb0       ??_C@_1M@BJNKEDC@?$AAc?$AAa?$AA?9?$AAE?$AAS?$AA?$AA@ 000000018001deb0     LIBCMT:winapinls.obj
 0002:00004ec0       ??_C@_1M@IJJHFJHA@?$AAc?$AAs?$AA?9?$AAC?$AAZ?$AA?$AA@ 000000018001dec0     LIBCMT:winapinls.obj
 0002:00004ed0       ??_C@_1M@CLPEOBGI@?$AAd?$AAa?$AA?9?$AAD?$AAK?$AA?$AA@ 000000018001ded0     LIBCMT:winapinls.obj
 0002:00004ee0       ??_C@_1M@MCMADGCB@?$AAd?$AAe?$AA?9?$AAD?$AAE?$AA?$AA@ 000000018001dee0     LIBCMT:winapinls.obj
 0002:00004ef0       ??_C@_1M@OOCKEMAM@?$AAe?$AAl?$AA?9?$AAG?$AAR?$AA?$AA@ 000000018001def0     LIBCMT:winapinls.obj
 0002:00004f00       ??_C@_1M@DDNJFGID@?$AAf?$AAi?$AA?9?$AAF?$AAI?$AA?$AA@ 000000018001df00     LIBCMT:winapinls.obj
 0002:00004f10       ??_C@_1M@GLIPPMAC@?$AAf?$AAr?$AA?9?$AAF?$AAR?$AA?$AA@ 000000018001df10     LIBCMT:winapinls.obj
 0002:00004f20       ??_C@_1M@GFMCHPE@?$AAh?$AAe?$AA?9?$AAI?$AAL?$AA?$AA@ 000000018001df20     LIBCMT:winapinls.obj
 0002:00004f30       ??_C@_1M@MHLPGNKM@?$AAh?$AAu?$AA?9?$AAH?$AAU?$AA?$AA@ 000000018001df30     LIBCMT:winapinls.obj
 0002:00004f40       ??_C@_1M@LPDDNNPN@?$AAi?$AAs?$AA?9?$AAI?$AAS?$AA?$AA@ 000000018001df40     LIBCMT:winapinls.obj
 0002:00004f50       ??_C@_1M@MADIPODN@?$AAi?$AAt?$AA?9?$AAI?$AAT?$AA?$AA@ 000000018001df50     LIBCMT:winapinls.obj
 0002:00004f60       ??_C@_1M@IHBJJGG@?$AAn?$AAl?$AA?9?$AAN?$AAL?$AA?$AA@ 000000018001df60     LIBCMT:winapinls.obj
 0002:00004f70       ??_C@_1M@EANAGDL@?$AAn?$AAb?$AA?9?$AAN?$AAO?$AA?$AA@ 000000018001df70     LIBCMT:winapinls.obj
 0002:00004f80       ??_C@_1M@NEIEMEGP@?$AAp?$AAl?$AA?9?$AAP?$AAL?$AA?$AA@ 000000018001df80     LIBCMT:winapinls.obj
 0002:00004f90       ??_C@_1M@BOCFIGEP@?$AAp?$AAt?$AA?9?$AAB?$AAR?$AA?$AA@ 000000018001df90     LIBCMT:winapinls.obj
 0002:00004fa0       ??_C@_1M@IMPFOPBG@?$AAr?$AAo?$AA?9?$AAR?$AAO?$AA?$AA@ 000000018001dfa0     LIBCMT:winapinls.obj
 0002:00004fb0       ??_C@_1M@IDNNEJMM@?$AAr?$AAu?$AA?9?$AAR?$AAU?$AA?$AA@ 000000018001dfb0     LIBCMT:winapinls.obj
 0002:00004fc0       ??_C@_1M@LILEEOGM@?$AAh?$AAr?$AA?9?$AAH?$AAR?$AA?$AA@ 000000018001dfc0     LIBCMT:winapinls.obj
 0002:00004fd0       ??_C@_1M@FKIFEHPB@?$AAs?$AAk?$AA?9?$AAS?$AAK?$AA?$AA@ 000000018001dfd0     LIBCMT:winapinls.obj
 0002:00004fe0       ??_C@_1M@LJMAMNPJ@?$AAs?$AAq?$AA?9?$AAA?$AAL?$AA?$AA@ 000000018001dfe0     LIBCMT:winapinls.obj
 0002:00004ff0       ??_C@_1M@GIAKDKJK@?$AAs?$AAv?$AA?9?$AAS?$AAE?$AA?$AA@ 000000018001dff0     LIBCMT:winapinls.obj
 0002:00005000       ??_C@_1M@MKJKIKCL@?$AAt?$AAh?$AA?9?$AAT?$AAH?$AA?$AA@ 000000018001e000     LIBCMT:winapinls.obj
 0002:00005010       ??_C@_1M@MFLCCMPB@?$AAt?$AAr?$AA?9?$AAT?$AAR?$AA?$AA@ 000000018001e010     LIBCMT:winapinls.obj
 0002:00005020       ??_C@_1M@OIJHDKJN@?$AAu?$AAr?$AA?9?$AAP?$AAK?$AA?$AA@ 000000018001e020     LIBCMT:winapinls.obj
 0002:00005030       ??_C@_1M@LHIPCIEK@?$AAi?$AAd?$AA?9?$AAI?$AAD?$AA?$AA@ 000000018001e030     LIBCMT:winapinls.obj
 0002:00005040       ??_C@_1M@MFMOBGI@?$AAu?$AAk?$AA?9?$AAU?$AAA?$AA?$AA@ 000000018001e040     LIBCMT:winapinls.obj
 0002:00005050       ??_C@_1M@OBGLJIPL@?$AAb?$AAe?$AA?9?$AAB?$AAY?$AA?$AA@ 000000018001e050     LIBCMT:winapinls.obj
 0002:00005060       ??_C@_1M@BCFAJEAD@?$AAs?$AAl?$AA?9?$AAS?$AAI?$AA?$AA@ 000000018001e060     LIBCMT:winapinls.obj
 0002:00005070       ??_C@_1M@FKFFEDDN@?$AAe?$AAt?$AA?9?$AAE?$AAE?$AA?$AA@ 000000018001e070     LIBCMT:winapinls.obj
 0002:00005080       ??_C@_1M@KGKKAACI@?$AAl?$AAv?$AA?9?$AAL?$AAV?$AA?$AA@ 000000018001e080     LIBCMT:winapinls.obj
 0002:00005090       ??_C@_1M@IFGBIJO@?$AAl?$AAt?$AA?9?$AAL?$AAT?$AA?$AA@ 000000018001e090     LIBCMT:winapinls.obj
 0002:000050a0       ??_C@_1M@FGEAHEDM@?$AAf?$AAa?$AA?9?$AAI?$AAR?$AA?$AA@ 000000018001e0a0     LIBCMT:winapinls.obj
 0002:000050b0       ??_C@_1M@KBMAIBFN@?$AAv?$AAi?$AA?9?$AAV?$AAN?$AA?$AA@ 000000018001e0b0     LIBCMT:winapinls.obj
 0002:000050c0       ??_C@_1M@GPCBKDJK@?$AAh?$AAy?$AA?9?$AAA?$AAM?$AA?$AA@ 000000018001e0c0     LIBCMT:winapinls.obj
 0002:000050d0       ??_C@_1BG@BECMDDJB@?$AAa?$AAz?$AA?9?$AAA?$AAZ?$AA?9?$AAL?$AAa?$AAt?$AAn?$AA?$AA@ 000000018001e0d0     LIBCMT:winapinls.obj
 0002:000050e8       ??_C@_1M@MAOFCAEA@?$AAe?$AAu?$AA?9?$AAE?$AAS?$AA?$AA@ 000000018001e0e8     LIBCMT:winapinls.obj
 0002:000050f8       ??_C@_1M@IGHABKPI@?$AAm?$AAk?$AA?9?$AAM?$AAK?$AA?$AA@ 000000018001e0f8     LIBCMT:winapinls.obj
 0002:00005108       ??_C@_1M@IAIGNEJG@?$AAt?$AAn?$AA?9?$AAZ?$AAA?$AA?$AA@ 000000018001e108     LIBCMT:winapinls.obj
 0002:00005118       ??_C@_1M@IIJCOJFA@?$AAx?$AAh?$AA?9?$AAZ?$AAA?$AA?$AA@ 000000018001e118     LIBCMT:winapinls.obj
 0002:00005128       ??_C@_1M@LGPJHNJH@?$AAz?$AAu?$AA?9?$AAZ?$AAA?$AA?$AA@ 000000018001e128     LIBCMT:winapinls.obj
 0002:00005138       ??_C@_1M@HOKAOIO@?$AAa?$AAf?$AA?9?$AAZ?$AAA?$AA?$AA@ 000000018001e138     LIBCMT:winapinls.obj
 0002:00005148       ??_C@_1M@DPCLHLIE@?$AAk?$AAa?$AA?9?$AAG?$AAE?$AA?$AA@ 000000018001e148     LIBCMT:winapinls.obj
 0002:00005158       ??_C@_1M@BLKMHJBI@?$AAf?$AAo?$AA?9?$AAF?$AAO?$AA?$AA@ 000000018001e158     LIBCMT:winapinls.obj
 0002:00005168       ??_C@_1M@LGGJAPPB@?$AAh?$AAi?$AA?9?$AAI?$AAN?$AA?$AA@ 000000018001e168     LIBCMT:winapinls.obj
 0002:00005178       ??_C@_1M@FIKPIHFE@?$AAm?$AAt?$AA?9?$AAM?$AAT?$AA?$AA@ 000000018001e178     LIBCMT:winapinls.obj
 0002:00005188       ??_C@_1M@HEGGPBFA@?$AAs?$AAe?$AA?9?$AAN?$AAO?$AA?$AA@ 000000018001e188     LIBCMT:winapinls.obj
 0002:00005198       ??_C@_1M@EIBJEEPA@?$AAm?$AAs?$AA?9?$AAM?$AAY?$AA?$AA@ 000000018001e198     LIBCMT:winapinls.obj
 0002:000051a8       ??_C@_1M@FHLBGMPP@?$AAk?$AAk?$AA?9?$AAK?$AAZ?$AA?$AA@ 000000018001e1a8     LIBCMT:winapinls.obj
 0002:000051b8       ??_C@_1M@NGJJLCGI@?$AAk?$AAy?$AA?9?$AAK?$AAG?$AA?$AA@ 000000018001e1b8     LIBCMT:winapinls.obj
 0002:000051c8       ??_C@_1M@GIENNBFC@?$AAs?$AAw?$AA?9?$AAK?$AAE?$AA?$AA@ 000000018001e1c8     LIBCMT:winapinls.obj
 0002:000051d8       ??_C@_1BG@NDGMJIMJ@?$AAu?$AAz?$AA?9?$AAU?$AAZ?$AA?9?$AAL?$AAa?$AAt?$AAn?$AA?$AA@ 000000018001e1d8     LIBCMT:winapinls.obj
 0002:000051f0       ??_C@_1M@IDCCIHBC@?$AAt?$AAt?$AA?9?$AAR?$AAU?$AA?$AA@ 000000018001e1f0     LIBCMT:winapinls.obj
 0002:00005200       ??_C@_1M@LOICPMOJ@?$AAb?$AAn?$AA?9?$AAI?$AAN?$AA?$AA@ 000000018001e200     LIBCMT:winapinls.obj
 0002:00005210       ??_C@_1M@KPKKNEAH@?$AAp?$AAa?$AA?9?$AAI?$AAN?$AA?$AA@ 000000018001e210     LIBCMT:winapinls.obj
 0002:00005220       ??_C@_1M@PJGPPBOG@?$AAg?$AAu?$AA?9?$AAI?$AAN?$AA?$AA@ 000000018001e220     LIBCMT:winapinls.obj
 0002:00005230       ??_C@_1M@KMKMOPHI@?$AAt?$AAa?$AA?9?$AAI?$AAN?$AA?$AA@ 000000018001e230     LIBCMT:winapinls.obj
 0002:00005240       ??_C@_1M@KFEHEPAC@?$AAt?$AAe?$AA?9?$AAI?$AAN?$AA?$AA@ 000000018001e240     LIBCMT:winapinls.obj
 0002:00005250       ??_C@_1M@CDCLMGHI@?$AAk?$AAn?$AA?9?$AAI?$AAN?$AA?$AA@ 000000018001e250     LIBCMT:winapinls.obj
 0002:00005260       ??_C@_1M@MIODLDKF@?$AAm?$AAl?$AA?9?$AAI?$AAN?$AA?$AA@ 000000018001e260     LIBCMT:winapinls.obj
 0002:00005270       ??_C@_1M@PBIEACPO@?$AAm?$AAr?$AA?9?$AAI?$AAN?$AA?$AA@ 000000018001e270     LIBCMT:winapinls.obj
 0002:00005280       ??_C@_1M@NIDEAGPH@?$AAs?$AAa?$AA?9?$AAI?$AAN?$AA?$AA@ 000000018001e280     LIBCMT:winapinls.obj
 0002:00005290       ??_C@_1M@FHIHCBIO@?$AAm?$AAn?$AA?9?$AAM?$AAN?$AA?$AA@ 000000018001e290     LIBCMT:winapinls.obj
 0002:000052a0       ??_C@_1M@JAIJPENP@?$AAc?$AAy?$AA?9?$AAG?$AAB?$AA?$AA@ 000000018001e2a0     LIBCMT:winapinls.obj
 0002:000052b0       ??_C@_1M@PHGFBEPN@?$AAg?$AAl?$AA?9?$AAE?$AAS?$AA?$AA@ 000000018001e2b0     LIBCMT:winapinls.obj
 0002:000052c0       ??_C@_1O@KPIPDNCP@?$AAk?$AAo?$AAk?$AA?9?$AAI?$AAN?$AA?$AA@ 000000018001e2c0     LIBCMT:winapinls.obj
 0002:000052d0       ??_C@_1O@KNHJLDJA@?$AAs?$AAy?$AAr?$AA?9?$AAS?$AAY?$AA?$AA@ 000000018001e2d0     LIBCMT:winapinls.obj
 0002:000052e0       ??_C@_1O@MKEKBLAH@?$AAd?$AAi?$AAv?$AA?9?$AAM?$AAV?$AA?$AA@ 000000018001e2e0     LIBCMT:winapinls.obj
 0002:000052f0       ??_C@_1O@OHDCKDDF@?$AAq?$AAu?$AAz?$AA?9?$AAB?$AAO?$AA?$AA@ 000000018001e2f0     LIBCMT:winapinls.obj
 0002:00005300       ??_C@_1M@LEPJNLFD@?$AAn?$AAs?$AA?9?$AAZ?$AAA?$AA?$AA@ 000000018001e300     LIBCMT:winapinls.obj
 0002:00005310       ??_C@_1M@OMLEIIJB@?$AAm?$AAi?$AA?9?$AAN?$AAZ?$AA?$AA@ 000000018001e310     LIBCMT:winapinls.obj
 0002:00005320       ??_C@_1M@PMPEAILG@?$AAa?$AAr?$AA?9?$AAI?$AAQ?$AA?$AA@ 000000018001e320     LIBCMT:winapinls.obj
 0002:00005330       ??_C@_1M@CNKPNOEE@?$AAd?$AAe?$AA?9?$AAC?$AAH?$AA?$AA@ 000000018001e330     LIBCMT:winapinls.obj
 0002:00005340       ??_C@_1M@LKMGMLKO@?$AAe?$AAn?$AA?9?$AAG?$AAB?$AA?$AA@ 000000018001e340     LIBCMT:winapinls.obj
 0002:00005350       ??_C@_1M@PGKJFFGL@?$AAe?$AAs?$AA?9?$AAM?$AAX?$AA?$AA@ 000000018001e350     LIBCMT:winapinls.obj
 0002:00005360       ??_C@_1M@DNNANBDC@?$AAf?$AAr?$AA?9?$AAB?$AAE?$AA?$AA@ 000000018001e360     LIBCMT:winapinls.obj
 0002:00005370       ??_C@_1M@HLGMDFHM@?$AAi?$AAt?$AA?9?$AAC?$AAH?$AA?$AA@ 000000018001e370     LIBCMT:winapinls.obj
 0002:00005380       ??_C@_1M@CLLBGJH@?$AAn?$AAl?$AA?9?$AAB?$AAE?$AA?$AA@ 000000018001e380     LIBCMT:winapinls.obj
 0002:00005390       ??_C@_1M@BODBOGLF@?$AAn?$AAn?$AA?9?$AAN?$AAO?$AA?$AA@ 000000018001e390     LIBCMT:winapinls.obj
 0002:000053a0       ??_C@_1M@HFFAHKAD@?$AAp?$AAt?$AA?9?$AAP?$AAT?$AA?$AA@ 000000018001e3a0     LIBCMT:winapinls.obj
 0002:000053b0       ??_C@_1BG@LNOAKHIE@?$AAs?$AAr?$AA?9?$AAS?$AAP?$AA?9?$AAL?$AAa?$AAt?$AAn?$AA?$AA@ 000000018001e3b0     LIBCMT:winapinls.obj
 0002:000053c8       ??_C@_1M@HBMHBGAK@?$AAs?$AAv?$AA?9?$AAF?$AAI?$AA?$AA@ 000000018001e3c8     LIBCMT:winapinls.obj
 0002:000053d8       ??_C@_1BG@DGCJGJBE@?$AAa?$AAz?$AA?9?$AAA?$AAZ?$AA?9?$AAC?$AAy?$AAr?$AAl?$AA?$AA@ 000000018001e3d8     LIBCMT:winapinls.obj
 0002:000053f0       ??_C@_1M@KEJDAAHB@?$AAs?$AAe?$AA?9?$AAS?$AAE?$AA?$AA@ 000000018001e3f0     LIBCMT:winapinls.obj
 0002:00005400       ??_C@_1M@HEIBJJAD@?$AAm?$AAs?$AA?9?$AAB?$AAN?$AA?$AA@ 000000018001e400     LIBCMT:winapinls.obj
 0002:00005410       ??_C@_1BG@PBGJMCEM@?$AAu?$AAz?$AA?9?$AAU?$AAZ?$AA?9?$AAC?$AAy?$AAr?$AAl?$AA?$AA@ 000000018001e410     LIBCMT:winapinls.obj
 0002:00005428       ??_C@_1O@LAOBCMDF@?$AAq?$AAu?$AAz?$AA?9?$AAE?$AAC?$AA?$AA@ 000000018001e428     LIBCMT:winapinls.obj
 0002:00005438       ??_C@_1M@POEEMAIO@?$AAa?$AAr?$AA?9?$AAE?$AAG?$AA?$AA@ 000000018001e438     LIBCMT:winapinls.obj
 0002:00005448       ??_C@_1M@EFAKDEDL@?$AAz?$AAh?$AA?9?$AAH?$AAK?$AA?$AA@ 000000018001e448     LIBCMT:winapinls.obj
 0002:00005458       ??_C@_1M@HKKIJHGI@?$AAd?$AAe?$AA?9?$AAA?$AAT?$AA?$AA@ 000000018001e458     LIBCMT:winapinls.obj
 0002:00005468       ??_C@_1M@KBFBEHJF@?$AAe?$AAn?$AA?9?$AAA?$AAU?$AA?$AA@ 000000018001e468     LIBCMT:winapinls.obj
 0002:00005478       ??_C@_1M@MNPLFAAH@?$AAe?$AAs?$AA?9?$AAE?$AAS?$AA?$AA@ 000000018001e478     LIBCMT:winapinls.obj
 0002:00005488       ??_C@_1M@HJOOJFMA@?$AAf?$AAr?$AA?9?$AAC?$AAA?$AA?$AA@ 000000018001e488     LIBCMT:winapinls.obj
 0002:00005498       ??_C@_1BG@JPOFPNAB@?$AAs?$AAr?$AA?9?$AAS?$AAP?$AA?9?$AAC?$AAy?$AAr?$AAl?$AA?$AA@ 000000018001e498     LIBCMT:winapinls.obj
 0002:000054b0       ??_C@_1M@LNFOCMOB@?$AAs?$AAe?$AA?9?$AAF?$AAI?$AA?$AA@ 000000018001e4b0     LIBCMT:winapinls.obj
 0002:000054c0       ??_C@_1O@MGJBOAMB@?$AAq?$AAu?$AAz?$AA?9?$AAP?$AAE?$AA?$AA@ 000000018001e4c0     LIBCMT:winapinls.obj
 0002:000054d0       ??_C@_1M@GJINLBOK@?$AAa?$AAr?$AA?9?$AAL?$AAY?$AA?$AA@ 000000018001e4d0     LIBCMT:winapinls.obj
 0002:000054e0       ??_C@_1M@GGMNHJNL@?$AAz?$AAh?$AA?9?$AAS?$AAG?$AA?$AA@ 000000018001e4e0     LIBCMT:winapinls.obj
 0002:000054f0       ??_C@_1M@HOIKODND@?$AAd?$AAe?$AA?9?$AAL?$AAU?$AA?$AA@ 000000018001e4f0     LIBCMT:winapinls.obj
 0002:00005500       ??_C@_1M@DDOCCGFG@?$AAe?$AAn?$AA?9?$AAC?$AAA?$AA?$AA@ 000000018001e500     LIBCMT:winapinls.obj
 0002:00005510       ??_C@_1M@BNOEMJLF@?$AAe?$AAs?$AA?9?$AAG?$AAT?$AA?$AA@ 000000018001e510     LIBCMT:winapinls.obj
 0002:00005520       ??_C@_1M@EOGNKEK@?$AAf?$AAr?$AA?9?$AAC?$AAH?$AA?$AA@ 000000018001e520     LIBCMT:winapinls.obj
 0002:00005530       ??_C@_1M@FLIDJFHL@?$AAh?$AAr?$AA?9?$AAB?$AAA?$AA?$AA@ 000000018001e530     LIBCMT:winapinls.obj
 0002:00005540       ??_C@_1O@FMCELNAJ@?$AAs?$AAm?$AAj?$AA?9?$AAN?$AAO?$AA?$AA@ 000000018001e540     LIBCMT:winapinls.obj
 0002:00005550       ??_C@_1M@JHGLJMGJ@?$AAa?$AAr?$AA?9?$AAD?$AAZ?$AA?$AA@ 000000018001e550     LIBCMT:winapinls.obj
 0002:00005560       ??_C@_1M@JKKFDCNP@?$AAz?$AAh?$AA?9?$AAM?$AAO?$AA?$AA@ 000000018001e560     LIBCMT:winapinls.obj
 0002:00005570       ??_C@_1M@GEEFALPE@?$AAd?$AAe?$AA?9?$AAL?$AAI?$AA?$AA@ 000000018001e570     LIBCMT:winapinls.obj
 0002:00005580       ??_C@_1M@IGEOFBG@?$AAe?$AAn?$AA?9?$AAN?$AAZ?$AA?$AA@ 000000018001e580     LIBCMT:winapinls.obj
 0002:00005590       ??_C@_1M@KDBONEHP@?$AAe?$AAs?$AA?9?$AAC?$AAR?$AA?$AA@ 000000018001e590     LIBCMT:winapinls.obj
 0002:000055a0       ??_C@_1M@FHMDOHNN@?$AAf?$AAr?$AA?9?$AAL?$AAU?$AA?$AA@ 000000018001e5a0     LIBCMT:winapinls.obj
 0002:000055b0       ??_C@_1BG@NFKKMAFG@?$AAb?$AAs?$AA?9?$AAB?$AAA?$AA?9?$AAL?$AAa?$AAt?$AAn?$AA?$AA@ 000000018001e5b0     LIBCMT:winapinls.obj
 0002:000055c8       ??_C@_1O@IMNBEMCI@?$AAs?$AAm?$AAj?$AA?9?$AAS?$AAE?$AA?$AA@ 000000018001e5c8     LIBCMT:winapinls.obj
 0002:000055d8       ??_C@_1M@DHHMBNDP@?$AAa?$AAr?$AA?9?$AAM?$AAA?$AA?$AA@ 000000018001e5d8     LIBCMT:winapinls.obj
 0002:000055e8       ??_C@_1M@BNBLJCGH@?$AAe?$AAn?$AA?9?$AAI?$AAE?$AA?$AA@ 000000018001e5e8     LIBCMT:winapinls.obj
 0002:000055f8       ??_C@_1M@GEPAFMDL@?$AAe?$AAs?$AA?9?$AAP?$AAA?$AA?$AA@ 000000018001e5f8     LIBCMT:winapinls.obj
 0002:00005608       ??_C@_1M@OJONDMDL@?$AAf?$AAr?$AA?9?$AAM?$AAC?$AA?$AA@ 000000018001e608     LIBCMT:winapinls.obj
 0002:00005618       ??_C@_1BG@OBCNFJB@?$AAs?$AAr?$AA?9?$AAB?$AAA?$AA?9?$AAL?$AAa?$AAt?$AAn?$AA?$AA@ 000000018001e618     LIBCMT:winapinls.obj
 0002:00005630       ??_C@_1O@KEMEEGPO@?$AAs?$AAm?$AAa?$AA?9?$AAN?$AAO?$AA?$AA@ 000000018001e630     LIBCMT:winapinls.obj
 0002:00005640       ??_C@_1M@ELMGFODK@?$AAa?$AAr?$AA?9?$AAT?$AAN?$AA?$AA@ 000000018001e640     LIBCMT:winapinls.obj
 0002:00005650       ??_C@_1M@BHDLHFAF@?$AAe?$AAn?$AA?9?$AAZ?$AAA?$AA?$AA@ 000000018001e650     LIBCMT:winapinls.obj
 0002:00005660       ??_C@_1M@BMGIGLIF@?$AAe?$AAs?$AA?9?$AAD?$AAO?$AA?$AA@ 000000018001e660     LIBCMT:winapinls.obj
 0002:00005670       ??_C@_1BG@CMBHIPBE@?$AAs?$AAr?$AA?9?$AAB?$AAA?$AA?9?$AAC?$AAy?$AAr?$AAl?$AA?$AA@ 000000018001e670     LIBCMT:winapinls.obj
 0002:00005688       ??_C@_1O@HEDBLHNP@?$AAs?$AAm?$AAa?$AA?9?$AAS?$AAE?$AA?$AA@ 000000018001e688     LIBCMT:winapinls.obj
 0002:00005698       ??_C@_1M@DAGCADIM@?$AAa?$AAr?$AA?9?$AAO?$AAM?$AA?$AA@ 000000018001e698     LIBCMT:winapinls.obj
 0002:000056a8       ??_C@_1M@FODLMICG@?$AAe?$AAn?$AA?9?$AAJ?$AAM?$AA?$AA@ 000000018001e6a8     LIBCMT:winapinls.obj
 0002:000056b8       ??_C@_1M@DNMLCIHB@?$AAe?$AAs?$AA?9?$AAV?$AAE?$AA?$AA@ 000000018001e6b8     LIBCMT:winapinls.obj
 0002:000056c8       ??_C@_1O@EOKHMKJK@?$AAs?$AAm?$AAs?$AA?9?$AAF?$AAI?$AA?$AA@ 000000018001e6c8     LIBCMT:winapinls.obj
 0002:000056d8       ??_C@_1M@CAFJMKOF@?$AAa?$AAr?$AA?9?$AAY?$AAE?$AA?$AA@ 000000018001e6d8     LIBCMT:winapinls.obj
 0002:000056e8       ??_C@_1M@CBFHIJLI@?$AAe?$AAn?$AA?9?$AAC?$AAB?$AA?$AA@ 000000018001e6e8     LIBCMT:winapinls.obj
 0002:000056f8       ??_C@_1M@BGNFLDN@?$AAe?$AAs?$AA?9?$AAC?$AAO?$AA?$AA@ 000000018001e6f8     LIBCMT:winapinls.obj
 0002:00005708       ??_C@_1O@JMPHMAMC@?$AAs?$AAm?$AAn?$AA?9?$AAF?$AAI?$AA?$AA@ 000000018001e708     LIBCMT:winapinls.obj
 0002:00005718       ??_C@_1M@JLANABKE@?$AAa?$AAr?$AA?9?$AAS?$AAY?$AA?$AA@ 000000018001e718     LIBCMT:winapinls.obj
 0002:00005728       ??_C@_1M@HPKGCFGN@?$AAe?$AAn?$AA?9?$AAB?$AAZ?$AA?$AA@ 000000018001e728     LIBCMT:winapinls.obj
 0002:00005738       ??_C@_1M@OLJCMLGM@?$AAe?$AAs?$AA?9?$AAP?$AAE?$AA?$AA@ 000000018001e738     LIBCMT:winapinls.obj
 0002:00005748       ??_C@_1M@MKKGFKLE@?$AAa?$AAr?$AA?9?$AAJ?$AAO?$AA?$AA@ 000000018001e748     LIBCMT:winapinls.obj
 0002:00005758       ??_C@_1M@EKPGLDNI@?$AAe?$AAn?$AA?9?$AAT?$AAT?$AA?$AA@ 000000018001e758     LIBCMT:winapinls.obj
 0002:00005768       ??_C@_1M@OONGHFHE@?$AAe?$AAs?$AA?9?$AAA?$AAR?$AA?$AA@ 000000018001e768     LIBCMT:winapinls.obj
 0002:00005778       ??_C@_1M@OOJFGBHE@?$AAa?$AAr?$AA?9?$AAL?$AAB?$AA?$AA@ 000000018001e778     LIBCMT:winapinls.obj
 0002:00005788       ??_C@_1M@GCEJHNEG@?$AAe?$AAn?$AA?9?$AAZ?$AAW?$AA?$AA@ 000000018001e788     LIBCMT:winapinls.obj
 0002:00005798       ??_C@_1M@JNOCAHJI@?$AAe?$AAs?$AA?9?$AAE?$AAC?$AA?$AA@ 000000018001e798     LIBCMT:winapinls.obj
 0002:000057a8       ??_C@_1M@JEFHPGGB@?$AAa?$AAr?$AA?9?$AAK?$AAW?$AA?$AA@ 000000018001e7a8     LIBCMT:winapinls.obj
 0002:000057b8       ??_C@_1M@MLKIBJOJ@?$AAe?$AAn?$AA?9?$AAP?$AAH?$AA?$AA@ 000000018001e7b8     LIBCMT:winapinls.obj
 0002:000057c8       ??_C@_1M@BDNIPEND@?$AAe?$AAs?$AA?9?$AAC?$AAL?$AA?$AA@ 000000018001e7c8     LIBCMT:winapinls.obj
 0002:000057d8       ??_C@_1M@MPNMEKBD@?$AAa?$AAr?$AA?9?$AAA?$AAE?$AA?$AA@ 000000018001e7d8     LIBCMT:winapinls.obj
 0002:000057e8       ??_C@_1M@KBJALCPI@?$AAe?$AAs?$AA?9?$AAU?$AAY?$AA?$AA@ 000000018001e7e8     LIBCMT:winapinls.obj
 0002:000057f8       ??_C@_1M@LLCCOAGA@?$AAa?$AAr?$AA?9?$AAB?$AAH?$AA?$AA@ 000000018001e7f8     LIBCMT:winapinls.obj
 0002:00005808       ??_C@_1M@PBFNCDEL@?$AAe?$AAs?$AA?9?$AAP?$AAY?$AA?$AA@ 000000018001e808     LIBCMT:winapinls.obj
 0002:00005818       ??_C@_1M@EDGINPNP@?$AAa?$AAr?$AA?9?$AAQ?$AAA?$AA?$AA@ 000000018001e818     LIBCMT:winapinls.obj
 0002:00005828       ??_C@_1M@MKDBIIJI@?$AAe?$AAs?$AA?9?$AAB?$AAO?$AA?$AA@ 000000018001e828     LIBCMT:winapinls.obj
 0002:00005838       ??_C@_1M@CPKKEBLD@?$AAe?$AAs?$AA?9?$AAS?$AAV?$AA?$AA@ 000000018001e838     LIBCMT:winapinls.obj
 0002:00005848       ??_C@_1M@NDBGMMJL@?$AAe?$AAs?$AA?9?$AAH?$AAN?$AA?$AA@ 000000018001e848     LIBCMT:winapinls.obj
 0002:00005858       ??_C@_1M@JIJIBHDP@?$AAe?$AAs?$AA?9?$AAN?$AAI?$AA?$AA@ 000000018001e858     LIBCMT:winapinls.obj
 0002:00005868       ??_C@_1M@CGFMKEEK@?$AAe?$AAs?$AA?9?$AAP?$AAR?$AA?$AA@ 000000018001e868     LIBCMT:winapinls.obj
 0002:00005878       ??_C@_1O@ICJHKIIK@?$AAz?$AAh?$AA?9?$AAC?$AAH?$AAT?$AA?$AA@ 000000018001e878     LIBCMT:winapinls.obj
 0002:00005888       ??_C@_15CLNEJCE@?$AAs?$AAr?$AA?$AA@ 000000018001e888     LIBCMT:winapinls.obj
 0002:00005890       ??_C@_1M@KAHEKEIG@?$AAa?$AAf?$AA?9?$AAz?$AAa?$AA?$AA@ 000000018001e890     LIBCMT:winapinls.obj
 0002:000058a0       ??_C@_1M@GIECOABL@?$AAa?$AAr?$AA?9?$AAa?$AAe?$AA?$AA@ 000000018001e8a0     LIBCMT:winapinls.obj
 0002:000058b0       ??_C@_1M@BMLMEKGI@?$AAa?$AAr?$AA?9?$AAb?$AAh?$AA?$AA@ 000000018001e8b0     LIBCMT:winapinls.obj
 0002:000058c0       ??_C@_1M@DAPFDGGB@?$AAa?$AAr?$AA?9?$AAd?$AAz?$AA?$AA@ 000000018001e8c0     LIBCMT:winapinls.obj
 0002:000058d0       ??_C@_1M@FJNKGKIG@?$AAa?$AAr?$AA?9?$AAe?$AAg?$AA?$AA@ 000000018001e8d0     LIBCMT:winapinls.obj
 0002:000058e0       ??_C@_1M@FLGKKCLO@?$AAa?$AAr?$AA?9?$AAi?$AAq?$AA?$AA@ 000000018001e8e0     LIBCMT:winapinls.obj
 0002:000058f0       ??_C@_1M@GNDIPALM@?$AAa?$AAr?$AA?9?$AAj?$AAo?$AA?$AA@ 000000018001e8f0     LIBCMT:winapinls.obj
 0002:00005900       ??_C@_1M@DDMJFMGJ@?$AAa?$AAr?$AA?9?$AAk?$AAw?$AA?$AA@ 000000018001e900     LIBCMT:winapinls.obj
 0002:00005910       ??_C@_1M@EJALMLHM@?$AAa?$AAr?$AA?9?$AAl?$AAb?$AA?$AA@ 000000018001e910     LIBCMT:winapinls.obj
 0002:00005920       ??_C@_1M@MOBDBLOC@?$AAa?$AAr?$AA?9?$AAl?$AAy?$AA?$AA@ 000000018001e920     LIBCMT:winapinls.obj
 0002:00005930       ??_C@_1M@JAOCLHDH@?$AAa?$AAr?$AA?9?$AAm?$AAa?$AA?$AA@ 000000018001e930     LIBCMT:winapinls.obj
 0002:00005940       ??_C@_1M@JHPMKJIE@?$AAa?$AAr?$AA?9?$AAo?$AAm?$AA?$AA@ 000000018001e940     LIBCMT:winapinls.obj
 0002:00005950       ??_C@_1M@OEPGHFNH@?$AAa?$AAr?$AA?9?$AAq?$AAa?$AA?$AA@ 000000018001e950     LIBCMT:winapinls.obj
 0002:00005960       ??_C@_1M@KJDONENM@?$AAa?$AAr?$AA?9?$AAs?$AAa?$AA?$AA@ 000000018001e960     LIBCMT:winapinls.obj
 0002:00005970       ??_C@_1M@DMJDKLKM@?$AAa?$AAr?$AA?9?$AAs?$AAy?$AA?$AA@ 000000018001e970     LIBCMT:winapinls.obj
 0002:00005980       ??_C@_1M@OMFIPEDC@?$AAa?$AAr?$AA?9?$AAt?$AAn?$AA?$AA@ 000000018001e980     LIBCMT:winapinls.obj
 0002:00005990       ??_C@_1M@IHMHGAON@?$AAa?$AAr?$AA?9?$AAy?$AAe?$AA?$AA@ 000000018001e990     LIBCMT:winapinls.obj
 0002:000059a0       ??_C@_1BG@KDCPGJGB@?$AAa?$AAz?$AA?9?$AAa?$AAz?$AA?9?$AAc?$AAy?$AAr?$AAl?$AA?$AA@ 000000018001e9a0     LIBCMT:winapinls.obj
 0002:000059b8       ??_C@_1BG@IBCKDDOE@?$AAa?$AAz?$AA?9?$AAa?$AAz?$AA?9?$AAl?$AAa?$AAt?$AAn?$AA?$AA@ 000000018001e9b8     LIBCMT:winapinls.obj
 0002:000059d0       ??_C@_1M@EGPFDCPD@?$AAb?$AAe?$AA?9?$AAb?$AAy?$AA?$AA@ 000000018001e9d0     LIBCMT:winapinls.obj
 0002:000059e0       ??_C@_1M@PCMGMCGC@?$AAb?$AAg?$AA?9?$AAb?$AAg?$AA?$AA@ 000000018001e9e0     LIBCMT:winapinls.obj
 0002:000059f0       ??_C@_1M@BJBMFGOB@?$AAb?$AAn?$AA?9?$AAi?$AAn?$AA?$AA@ 000000018001e9f0     LIBCMT:winapinls.obj
 0002:00005a00       ??_C@_1BG@EAKMMACD@?$AAb?$AAs?$AA?9?$AAb?$AAa?$AA?9?$AAl?$AAa?$AAt?$AAn?$AA?$AA@ 000000018001ea00     LIBCMT:winapinls.obj
 0002:00005a18       ??_C@_1M@KGADAODK@?$AAc?$AAa?$AA?9?$AAe?$AAs?$AA?$AA@ 000000018001ea18     LIBCMT:winapinls.obj
 0002:00005a28       ??_C@_1M@COAJPDHI@?$AAc?$AAs?$AA?9?$AAc?$AAz?$AA?$AA@ 000000018001ea28     LIBCMT:winapinls.obj
 0002:00005a38       ??_C@_1M@DHBHFONH@?$AAc?$AAy?$AA?9?$AAg?$AAb?$AA?$AA@ 000000018001ea38     LIBCMT:winapinls.obj
 0002:00005a48       ??_C@_1M@IMGKELGA@?$AAd?$AAa?$AA?9?$AAd?$AAk?$AA?$AA@ 000000018001ea48     LIBCMT:winapinls.obj
 0002:00005a58       ??_C@_1M@NNDGDNGA@?$AAd?$AAe?$AA?9?$AAa?$AAt?$AA?$AA@ 000000018001ea58     LIBCMT:winapinls.obj
 0002:00005a68       ??_C@_1M@IKDBHEEM@?$AAd?$AAe?$AA?9?$AAc?$AAh?$AA?$AA@ 000000018001ea68     LIBCMT:winapinls.obj
 0002:00005a78       ??_C@_1M@GFFOJMCJ@?$AAd?$AAe?$AA?9?$AAd?$AAe?$AA?$AA@ 000000018001ea78     LIBCMT:winapinls.obj
 0002:00005a88       ??_C@_1M@MDNLKBPM@?$AAd?$AAe?$AA?9?$AAl?$AAi?$AA?$AA@ 000000018001ea88     LIBCMT:winapinls.obj
 0002:00005a98       ??_C@_1M@NJBEEJNL@?$AAd?$AAe?$AA?9?$AAl?$AAu?$AA?$AA@ 000000018001ea98     LIBCMT:winapinls.obj
 0002:00005aa8       ??_C@_1O@GNNELBAP@?$AAd?$AAi?$AAv?$AA?9?$AAm?$AAv?$AA?$AA@ 000000018001eaa8     LIBCMT:winapinls.obj
 0002:00005ab8       ??_C@_1M@EJLEOGAE@?$AAe?$AAl?$AA?9?$AAg?$AAr?$AA?$AA@ 000000018001eab8     LIBCMT:winapinls.obj
 0002:00005ac8       ??_C@_1M@GMPONJN@?$AAe?$AAn?$AA?9?$AAa?$AAu?$AA?$AA@ 000000018001eac8     LIBCMT:winapinls.obj
 0002:00005ad8       ??_C@_1M@NIDIIPGF@?$AAe?$AAn?$AA?9?$AAb?$AAz?$AA?$AA@ 000000018001ead8     LIBCMT:winapinls.obj
 0002:00005ae8       ??_C@_1M@JEHMIMFO@?$AAe?$AAn?$AA?9?$AAc?$AAa?$AA?$AA@ 000000018001eae8     LIBCMT:winapinls.obj
 0002:00005af8       ??_C@_1M@IGMJCDLA@?$AAe?$AAn?$AA?9?$AAc?$AAb?$AA?$AA@ 000000018001eaf8     LIBCMT:winapinls.obj
 0002:00005b08       ??_C@_1M@BNFIGBKG@?$AAe?$AAn?$AA?9?$AAg?$AAb?$AA?$AA@ 000000018001eb08     LIBCMT:winapinls.obj
 0002:00005b18       ??_C@_1M@LKIFDIGP@?$AAe?$AAn?$AA?9?$AAi?$AAe?$AA?$AA@ 000000018001eb18     LIBCMT:winapinls.obj
 0002:00005b28       ??_C@_1M@PJKFGCCO@?$AAe?$AAn?$AA?9?$AAj?$AAm?$AA?$AA@ 000000018001eb28     LIBCMT:winapinls.obj
 0002:00005b38       ??_C@_1M@KPPKEPBO@?$AAe?$AAn?$AA?9?$AAn?$AAz?$AA?$AA@ 000000018001eb38     LIBCMT:winapinls.obj
 0002:00005b48       ??_C@_1M@GMDGLDOB@?$AAe?$AAn?$AA?9?$AAp?$AAh?$AA?$AA@ 000000018001eb48     LIBCMT:winapinls.obj
 0002:00005b58       ??_C@_1M@ONGIBJNA@?$AAe?$AAn?$AA?9?$AAt?$AAt?$AA?$AA@ 000000018001eb58     LIBCMT:winapinls.obj
 0002:00005b68       ??_C@_1M@LLODPCMM@?$AAe?$AAn?$AA?9?$AAu?$AAs?$AA?$AA@ 000000018001eb68     LIBCMT:winapinls.obj
 0002:00005b78       ??_C@_1M@LAKFNPAN@?$AAe?$AAn?$AA?9?$AAz?$AAa?$AA?$AA@ 000000018001eb78     LIBCMT:winapinls.obj
 0002:00005b88       ??_C@_1M@MFNHNHEO@?$AAe?$AAn?$AA?9?$AAz?$AAw?$AA?$AA@ 000000018001eb88     LIBCMT:winapinls.obj
 0002:00005b98       ??_C@_1M@EJEINPHM@?$AAe?$AAs?$AA?9?$AAa?$AAr?$AA?$AA@ 000000018001eb98     LIBCMT:winapinls.obj
 0002:00005ba8       ??_C@_1M@GNKPCCJA@?$AAe?$AAs?$AA?9?$AAb?$AAo?$AA?$AA@ 000000018001eba8     LIBCMT:winapinls.obj
 0002:00005bb8       ??_C@_1M@LEEGFONL@?$AAe?$AAs?$AA?9?$AAc?$AAl?$AA?$AA@ 000000018001ebb8     LIBCMT:winapinls.obj
 0002:00005bc8       ??_C@_1M@KGPDPBDF@?$AAe?$AAs?$AA?9?$AAc?$AAo?$AA?$AA@ 000000018001ebc8     LIBCMT:winapinls.obj
 0002:00005bd8       ??_C@_1M@EIAHOHH@?$AAe?$AAs?$AA?9?$AAc?$AAr?$AA?$AA@ 000000018001ebd8     LIBCMT:winapinls.obj
 0002:00005be8       ??_C@_1M@LLPGMBIN@?$AAe?$AAs?$AA?9?$AAd?$AAo?$AA?$AA@ 000000018001ebe8     LIBCMT:winapinls.obj
 0002:00005bf8       ??_C@_1M@DKHMKNJA@?$AAe?$AAs?$AA?9?$AAe?$AAc?$AA?$AA@ 000000018001ebf8     LIBCMT:winapinls.obj
 0002:00005c08       ??_C@_1M@GKGFPKAP@?$AAe?$AAs?$AA?9?$AAe?$AAs?$AA?$AA@ 000000018001ec08     LIBCMT:winapinls.obj
 0002:00005c18       ??_C@_1M@LKHKGDLN@?$AAe?$AAs?$AA?9?$AAg?$AAt?$AA?$AA@ 000000018001ec18     LIBCMT:winapinls.obj
 0002:00005c28       ??_C@_1M@HEIIGGJD@?$AAe?$AAs?$AA?9?$AAh?$AAn?$AA?$AA@ 000000018001ec28     LIBCMT:winapinls.obj
 0002:00005c38       ??_C@_1M@FBDHPPGD@?$AAe?$AAs?$AA?9?$AAm?$AAx?$AA?$AA@ 000000018001ec38     LIBCMT:winapinls.obj
 0002:00005c48       ??_C@_1M@DPAGLNDH@?$AAe?$AAs?$AA?9?$AAn?$AAi?$AA?$AA@ 000000018001ec48     LIBCMT:winapinls.obj
 0002:00005c58       ??_C@_1M@MDGOPGDD@?$AAe?$AAs?$AA?9?$AAp?$AAa?$AA?$AA@ 000000018001ec58     LIBCMT:winapinls.obj
 0002:00005c68       ??_C@_1M@EMAMGBGE@?$AAe?$AAs?$AA?9?$AAp?$AAe?$AA?$AA@ 000000018001ec68     LIBCMT:winapinls.obj
 0002:00005c78       ??_C@_1M@IBMCAOEC@?$AAe?$AAs?$AA?9?$AAp?$AAr?$AA?$AA@ 000000018001ec78     LIBCMT:winapinls.obj
 0002:00005c88       ??_C@_1M@FGMDIJED@?$AAe?$AAs?$AA?9?$AAp?$AAy?$AA?$AA@ 000000018001ec88     LIBCMT:winapinls.obj
 0002:00005c98       ??_C@_1M@IIDEOLLL@?$AAe?$AAs?$AA?9?$AAs?$AAv?$AA?$AA@ 000000018001ec98     LIBCMT:winapinls.obj
 0002:00005ca8       ??_C@_1M@GAOBIPA@?$AAe?$AAs?$AA?9?$AAu?$AAy?$AA?$AA@ 000000018001eca8     LIBCMT:winapinls.obj
 0002:00005cb8       ??_C@_1M@JKFFICHJ@?$AAe?$AAs?$AA?9?$AAv?$AAe?$AA?$AA@ 000000018001ecb8     LIBCMT:winapinls.obj
 0002:00005cc8       ??_C@_1M@PNMLOJDF@?$AAe?$AAt?$AA?9?$AAe?$AAe?$AA?$AA@ 000000018001ecc8     LIBCMT:winapinls.obj
 0002:00005cd8       ??_C@_1M@GHHLIKEI@?$AAe?$AAu?$AA?9?$AAe?$AAs?$AA?$AA@ 000000018001ecd8     LIBCMT:winapinls.obj
 0002:00005ce8       ??_C@_1M@PBNONODE@?$AAf?$AAa?$AA?9?$AAi?$AAr?$AA?$AA@ 000000018001ece8     LIBCMT:winapinls.obj
 0002:00005cf8       ??_C@_1M@JEEHPMIL@?$AAf?$AAi?$AA?9?$AAf?$AAi?$AA?$AA@ 000000018001ecf8     LIBCMT:winapinls.obj
 0002:00005d08       ??_C@_1M@LMDCNDBA@?$AAf?$AAo?$AA?9?$AAf?$AAo?$AA?$AA@ 000000018001ed08     LIBCMT:winapinls.obj
 0002:00005d18       ??_C@_1M@JKEOHLDK@?$AAf?$AAr?$AA?9?$AAb?$AAe?$AA?$AA@ 000000018001ed18     LIBCMT:winapinls.obj
 0002:00005d28       ??_C@_1M@NOHADPMI@?$AAf?$AAr?$AA?9?$AAc?$AAa?$AA?$AA@ 000000018001ed28     LIBCMT:winapinls.obj
 0002:00005d38       ??_C@_1M@KDHIHAEC@?$AAf?$AAr?$AA?9?$AAc?$AAh?$AA?$AA@ 000000018001ed38     LIBCMT:winapinls.obj
 0002:00005d48       ??_C@_1M@MMBBFGAK@?$AAf?$AAr?$AA?9?$AAf?$AAr?$AA?$AA@ 000000018001ed48     LIBCMT:winapinls.obj
 0002:00005d58       ??_C@_1M@PAFNENNF@?$AAf?$AAr?$AA?9?$AAl?$AAu?$AA?$AA@ 000000018001ed58     LIBCMT:winapinls.obj
 0002:00005d68       ??_C@_1M@EOHDJGDD@?$AAf?$AAr?$AA?9?$AAm?$AAc?$AA?$AA@ 000000018001ed68     LIBCMT:winapinls.obj
 0002:00005d78       ??_C@_1M@FAPLLOPF@?$AAg?$AAl?$AA?9?$AAe?$AAs?$AA?$AA@ 000000018001ed78     LIBCMT:winapinls.obj
 0002:00005d88       ??_C@_1M@FOPBFLOO@?$AAg?$AAu?$AA?9?$AAi?$AAn?$AA?$AA@ 000000018001ed88     LIBCMT:winapinls.obj
 0002:00005d98       ??_C@_1M@KBMCINPM@?$AAh?$AAe?$AA?9?$AAi?$AAl?$AA?$AA@ 000000018001ed98     LIBCMT:winapinls.obj
 0002:00005da8       ??_C@_1M@BBPHKFPJ@?$AAh?$AAi?$AA?9?$AAi?$AAn?$AA?$AA@ 000000018001eda8     LIBCMT:winapinls.obj
 0002:00005db8       ??_C@_1M@PMBNDPHD@?$AAh?$AAr?$AA?9?$AAb?$AAa?$AA?$AA@ 000000018001edb8     LIBCMT:winapinls.obj
 0002:00005dc8       ??_C@_1M@BPCKOEGE@?$AAh?$AAr?$AA?9?$AAh?$AAr?$AA?$AA@ 000000018001edc8     LIBCMT:winapinls.obj
 0002:00005dd8       ??_C@_1M@GACBMHKE@?$AAh?$AAu?$AA?9?$AAh?$AAu?$AA?$AA@ 000000018001edd8     LIBCMT:winapinls.obj
 0002:00005de8       ??_C@_1M@MILPAJJC@?$AAh?$AAy?$AA?9?$AAa?$AAm?$AA?$AA@ 000000018001ede8     LIBCMT:winapinls.obj
 0002:00005df8       ??_C@_1M@BABBICEC@?$AAi?$AAd?$AA?9?$AAi?$AAd?$AA?$AA@ 000000018001edf8     LIBCMT:winapinls.obj
 0002:00005e08       ??_C@_1M@BIKNHHPF@?$AAi?$AAs?$AA?9?$AAi?$AAs?$AA?$AA@ 000000018001ee08     LIBCMT:winapinls.obj
 0002:00005e18       ??_C@_1M@NMPCJPHE@?$AAi?$AAt?$AA?9?$AAc?$AAh?$AA?$AA@ 000000018001ee18     LIBCMT:winapinls.obj
 0002:00005e28       ??_C@_1M@GHKGFEDF@?$AAi?$AAt?$AA?9?$AAi?$AAt?$AA?$AA@ 000000018001ee28     LIBCMT:winapinls.obj
 0002:00005e38       ??_C@_1M@NIEJCJJA@?$AAj?$AAa?$AA?9?$AAj?$AAp?$AA?$AA@ 000000018001ee38     LIBCMT:winapinls.obj
 0002:00005e48       ??_C@_1M@JILFNBIM@?$AAk?$AAa?$AA?9?$AAg?$AAe?$AA?$AA@ 000000018001ee48     LIBCMT:winapinls.obj
 0002:00005e58       ??_C@_1M@PACPMGPH@?$AAk?$AAk?$AA?9?$AAk?$AAz?$AA?$AA@ 000000018001ee58     LIBCMT:winapinls.obj
 0002:00005e68       ??_C@_1M@IELFGMHA@?$AAk?$AAn?$AA?9?$AAi?$AAn?$AA?$AA@ 000000018001ee68     LIBCMT:winapinls.obj
 0002:00005e78       ??_C@_1O@IBBJHCH@?$AAk?$AAo?$AAk?$AA?9?$AAi?$AAn?$AA?$AA@ 000000018001ee78     LIBCMT:winapinls.obj
 0002:00005e88       ??_C@_1M@DMHAEOGC@?$AAk?$AAo?$AA?9?$AAk?$AAr?$AA?$AA@ 000000018001ee88     LIBCMT:winapinls.obj
 0002:00005e98       ??_C@_1M@HBAHBIGA@?$AAk?$AAy?$AA?9?$AAk?$AAg?$AA?$AA@ 000000018001ee98     LIBCMT:winapinls.obj
 0002:00005ea8       ??_C@_1M@KPMILCJG@?$AAl?$AAt?$AA?9?$AAl?$AAt?$AA?$AA@ 000000018001eea8     LIBCMT:winapinls.obj
 0002:00005eb8       ??_C@_1M@BDEKKCA@?$AAl?$AAv?$AA?9?$AAl?$AAv?$AA?$AA@ 000000018001eeb8     LIBCMT:winapinls.obj
 0002:00005ec8       ??_C@_1M@ELCKCCJJ@?$AAm?$AAi?$AA?9?$AAn?$AAz?$AA?$AA@ 000000018001eec8     LIBCMT:winapinls.obj
 0002:00005ed8       ??_C@_1M@CBOOLAPA@?$AAm?$AAk?$AA?9?$AAm?$AAk?$AA?$AA@ 000000018001eed8     LIBCMT:winapinls.obj
 0002:00005ee8       ??_C@_1M@GPHNBJKN@?$AAm?$AAl?$AA?9?$AAi?$AAn?$AA?$AA@ 000000018001eee8     LIBCMT:winapinls.obj
 0002:00005ef8       ??_C@_1M@PABJILIG@?$AAm?$AAn?$AA?9?$AAm?$AAn?$AA?$AA@ 000000018001eef8     LIBCMT:winapinls.obj
 0002:00005f08       ??_C@_1M@FGBKKIPG@?$AAm?$AAr?$AA?9?$AAi?$AAn?$AA?$AA@ 000000018001ef08     LIBCMT:winapinls.obj
 0002:00005f18       ??_C@_1M@NDBPDDAL@?$AAm?$AAs?$AA?9?$AAb?$AAn?$AA?$AA@ 000000018001ef18     LIBCMT:winapinls.obj
 0002:00005f28       ??_C@_1M@OPIHOOPI@?$AAm?$AAs?$AA?9?$AAm?$AAy?$AA?$AA@ 000000018001ef28     LIBCMT:winapinls.obj
 0002:00005f38       ??_C@_1M@PPDBCNFM@?$AAm?$AAt?$AA?9?$AAm?$AAt?$AA?$AA@ 000000018001ef38     LIBCMT:winapinls.obj
 0002:00005f48       ??_C@_1M@KDJDKMDD@?$AAn?$AAb?$AA?9?$AAn?$AAo?$AA?$AA@ 000000018001ef48     LIBCMT:winapinls.obj
 0002:00005f58       ??_C@_1M@KFCFLMJP@?$AAn?$AAl?$AA?9?$AAb?$AAe?$AA?$AA@ 000000018001ef58     LIBCMT:winapinls.obj
 0002:00005f68       ??_C@_1M@KPOPDDGO@?$AAn?$AAl?$AA?9?$AAn?$AAl?$AA?$AA@ 000000018001ef68     LIBCMT:winapinls.obj
 0002:00005f78       ??_C@_1M@LJKPEMLN@?$AAn?$AAn?$AA?9?$AAn?$AAo?$AA?$AA@ 000000018001ef78     LIBCMT:winapinls.obj
 0002:00005f88       ??_C@_1M@BDGHHBFL@?$AAn?$AAs?$AA?9?$AAz?$AAa?$AA?$AA@ 000000018001ef88     LIBCMT:winapinls.obj
 0002:00005f98       ??_C@_1M@IDEHOAP@?$AAp?$AAa?$AA?9?$AAi?$AAn?$AA?$AA@ 000000018001ef98     LIBCMT:winapinls.obj
 0002:00005fa8       ??_C@_1M@HDBKGOGH@?$AAp?$AAl?$AA?9?$AAp?$AAl?$AA?$AA@ 000000018001efa8     LIBCMT:winapinls.obj
 0002:00005fb8       ??_C@_1M@LJLLCMEH@?$AAp?$AAt?$AA?9?$AAb?$AAr?$AA?$AA@ 000000018001efb8     LIBCMT:winapinls.obj
 0002:00005fc8       ??_C@_1M@NCMONAAL@?$AAp?$AAt?$AA?9?$AAp?$AAt?$AA?$AA@ 000000018001efc8     LIBCMT:winapinls.obj
 0002:00005fd8       ??_C@_1O@EAKMAJDN@?$AAq?$AAu?$AAz?$AA?9?$AAb?$AAo?$AA?$AA@ 000000018001efd8     LIBCMT:winapinls.obj
 0002:00005fe8       ??_C@_1O@BHHPIGDN@?$AAq?$AAu?$AAz?$AA?9?$AAe?$AAc?$AA?$AA@ 000000018001efe8     LIBCMT:winapinls.obj
 0002:00005ff8       ??_C@_1O@GBAPEKMJ@?$AAq?$AAu?$AAz?$AA?9?$AAp?$AAe?$AA?$AA@ 000000018001eff8     LIBCMT:winapinls.obj
 0002:00006008       ??_C@_1M@CLGLEFBO@?$AAr?$AAo?$AA?9?$AAr?$AAo?$AA?$AA@ 000000018001f008     LIBCMT:winapinls.obj
 0002:00006018       ??_C@_1M@CEEDODME@?$AAr?$AAu?$AA?9?$AAr?$AAu?$AA?$AA@ 000000018001f018     LIBCMT:winapinls.obj
 0002:00006028       ??_C@_1M@HPKKKMPP@?$AAs?$AAa?$AA?9?$AAi?$AAn?$AA?$AA@ 000000018001f028     LIBCMT:winapinls.obj
 0002:00006038       ??_C@_1M@BKMAIGOJ@?$AAs?$AAe?$AA?9?$AAf?$AAi?$AA?$AA@ 000000018001f038     LIBCMT:winapinls.obj
 0002:00006048       ??_C@_1M@NDPIFLFI@?$AAs?$AAe?$AA?9?$AAn?$AAo?$AA?$AA@ 000000018001f048     LIBCMT:winapinls.obj
 0002:00006058       ??_C@_1M@DANKKHJ@?$AAs?$AAe?$AA?9?$AAs?$AAe?$AA?$AA@ 000000018001f058     LIBCMT:winapinls.obj
 0002:00006068       ??_C@_1M@PNBLONPJ@?$AAs?$AAk?$AA?9?$AAs?$AAk?$AA?$AA@ 000000018001f068     LIBCMT:winapinls.obj
 0002:00006078       ??_C@_1M@LFMODOAL@?$AAs?$AAl?$AA?9?$AAs?$AAi?$AA?$AA@ 000000018001f078     LIBCMT:winapinls.obj
 0002:00006088       ??_C@_1O@DFKOMPG@?$AAs?$AAm?$AAa?$AA?9?$AAn?$AAo?$AA?$AA@ 000000018001f088     LIBCMT:winapinls.obj
 0002:00006098       ??_C@_1O@NDKPBNNH@?$AAs?$AAm?$AAa?$AA?9?$AAs?$AAe?$AA?$AA@ 000000018001f098     LIBCMT:winapinls.obj
 0002:000060a8       ??_C@_1O@PLLKBHAB@?$AAs?$AAm?$AAj?$AA?9?$AAn?$AAo?$AA?$AA@ 000000018001f0a8     LIBCMT:winapinls.obj
 0002:000060b8       ??_C@_1O@CLEPOGCA@?$AAs?$AAm?$AAj?$AA?9?$AAs?$AAe?$AA?$AA@ 000000018001f0b8     LIBCMT:winapinls.obj
 0002:000060c8       ??_C@_1O@DLGJGKMK@?$AAs?$AAm?$AAn?$AA?9?$AAf?$AAi?$AA?$AA@ 000000018001f0c8     LIBCMT:winapinls.obj
 0002:000060d8       ??_C@_1O@OJDJGAJC@?$AAs?$AAm?$AAs?$AA?9?$AAf?$AAi?$AA?$AA@ 000000018001f0d8     LIBCMT:winapinls.obj
 0002:000060e8       ??_C@_1M@BOFOGHPB@?$AAs?$AAq?$AA?9?$AAa?$AAl?$AA?$AA@ 000000018001f0e8     LIBCMT:winapinls.obj
 0002:000060f8       ??_C@_1BG@LJBBIPGB@?$AAs?$AAr?$AA?9?$AAb?$AAa?$AA?9?$AAc?$AAy?$AAr?$AAl?$AA?$AA@ 000000018001f0f8     LIBCMT:winapinls.obj
 0002:00006110       ??_C@_1BG@JLBENFOE@?$AAs?$AAr?$AA?9?$AAb?$AAa?$AA?9?$AAl?$AAa?$AAt?$AAn?$AA?$AA@ 000000018001f110     LIBCMT:winapinls.obj
 0002:00006128       ??_C@_1BG@KODPNHE@?$AAs?$AAr?$AA?9?$AAs?$AAp?$AA?9?$AAc?$AAy?$AAr?$AAl?$AA?$AA@ 000000018001f128     LIBCMT:winapinls.obj
 0002:00006140       ??_C@_1BG@CIOGKHPB@?$AAs?$AAr?$AA?9?$AAs?$AAp?$AA?9?$AAl?$AAa?$AAt?$AAn?$AA?$AA@ 000000018001f140     LIBCMT:winapinls.obj
 0002:00006158       ??_C@_1M@NGFJLMAC@?$AAs?$AAv?$AA?9?$AAf?$AAi?$AA?$AA@ 000000018001f158     LIBCMT:winapinls.obj
 0002:00006168       ??_C@_1M@MPJEJAJC@?$AAs?$AAv?$AA?9?$AAs?$AAe?$AA?$AA@ 000000018001f168     LIBCMT:winapinls.obj
 0002:00006178       ??_C@_1M@MPNDHLFK@?$AAs?$AAw?$AA?9?$AAk?$AAe?$AA?$AA@ 000000018001f178     LIBCMT:winapinls.obj
 0002:00006188       ??_C@_1O@KOHBJJI@?$AAs?$AAy?$AAr?$AA?9?$AAs?$AAy?$AA?$AA@ 000000018001f188     LIBCMT:winapinls.obj
 0002:00006198       ??_C@_1M@LDCEFHA@?$AAt?$AAa?$AA?9?$AAi?$AAn?$AA?$AA@ 000000018001f198     LIBCMT:winapinls.obj
 0002:000061a8       ??_C@_1M@CNJOFAK@?$AAt?$AAe?$AA?9?$AAi?$AAn?$AA?$AA@ 000000018001f1a8     LIBCMT:winapinls.obj
 0002:000061b8       ??_C@_1M@GNAECACD@?$AAt?$AAh?$AA?9?$AAt?$AAh?$AA?$AA@ 000000018001f1b8     LIBCMT:winapinls.obj
 0002:000061c8       ??_C@_1M@CHBIHOJO@?$AAt?$AAn?$AA?9?$AAz?$AAa?$AA?$AA@ 000000018001f1c8     LIBCMT:winapinls.obj
 0002:000061d8       ??_C@_1M@GCCMIGPJ@?$AAt?$AAr?$AA?9?$AAt?$AAr?$AA?$AA@ 000000018001f1d8     LIBCMT:winapinls.obj
 0002:000061e8       ??_C@_1M@CELMCNBK@?$AAt?$AAt?$AA?9?$AAr?$AAu?$AA?$AA@ 000000018001f1e8     LIBCMT:winapinls.obj
 0002:000061f8       ??_C@_1M@KLMCELGA@?$AAu?$AAk?$AA?9?$AAu?$AAa?$AA?$AA@ 000000018001f1f8     LIBCMT:winapinls.obj
 0002:00006208       ??_C@_1M@EPAJJAJF@?$AAu?$AAr?$AA?9?$AAp?$AAk?$AA?$AA@ 000000018001f208     LIBCMT:winapinls.obj
 0002:00006218       ??_C@_1BG@GEGPMCDJ@?$AAu?$AAz?$AA?9?$AAu?$AAz?$AA?9?$AAc?$AAy?$AAr?$AAl?$AA?$AA@ 000000018001f218     LIBCMT:winapinls.obj
 0002:00006230       ??_C@_1BG@EGGKJILM@?$AAu?$AAz?$AA?9?$AAu?$AAz?$AA?9?$AAl?$AAa?$AAt?$AAn?$AA?$AA@ 000000018001f230     LIBCMT:winapinls.obj
 0002:00006248       ??_C@_1M@GFOCLFF@?$AAv?$AAi?$AA?9?$AAv?$AAn?$AA?$AA@ 000000018001f248     LIBCMT:winapinls.obj
 0002:00006258       ??_C@_1M@CPAMEDFI@?$AAx?$AAh?$AA?9?$AAz?$AAa?$AA?$AA@ 000000018001f258     LIBCMT:winapinls.obj
 0002:00006268       ??_C@_1O@EBKIFIGN@?$AAz?$AAh?$AA?9?$AAc?$AAh?$AAs?$AA?$AA@ 000000018001f268     LIBCMT:winapinls.obj
 0002:00006278       ??_C@_1O@NMHPGANE@?$AAz?$AAh?$AA?9?$AAc?$AAh?$AAt?$AA?$AA@ 000000018001f278     LIBCMT:winapinls.obj
 0002:00006288       ??_C@_1M@LPINJOMC@?$AAz?$AAh?$AA?9?$AAc?$AAn?$AA?$AA@ 000000018001f288     LIBCMT:winapinls.obj
 0002:00006298       ??_C@_1M@OCJEJODD@?$AAz?$AAh?$AA?9?$AAh?$AAk?$AA?$AA@ 000000018001f298     LIBCMT:winapinls.obj
 0002:000062a8       ??_C@_1M@DNDLJINH@?$AAz?$AAh?$AA?9?$AAm?$AAo?$AA?$AA@ 000000018001f2a8     LIBCMT:winapinls.obj
 0002:000062b8       ??_C@_1M@MBFDNDND@?$AAz?$AAh?$AA?9?$AAs?$AAg?$AA?$AA@ 000000018001f2b8     LIBCMT:winapinls.obj
 0002:000062c8       ??_C@_1M@IMEPLEPE@?$AAz?$AAh?$AA?9?$AAt?$AAw?$AA?$AA@ 000000018001f2c8     LIBCMT:winapinls.obj
 0002:000062d8       ??_C@_1M@BBGHNHJP@?$AAz?$AAu?$AA?9?$AAz?$AAa?$AA?$AA@ 000000018001f2d8     LIBCMT:winapinls.obj
 0002:00006300       ??_C@_03KHJOGHMM@exp?$AA@  000000018001f300     LIBCMT:fpexcept.obj
 0002:00006304       ??_C@_03JGHBODFD@pow?$AA@  000000018001f304     LIBCMT:fpexcept.obj
 0002:00006308       ??_C@_03MGHMBJCF@log?$AA@  000000018001f308     LIBCMT:fpexcept.obj
 0002:0000630c       ??_C@_05HGHHAHAP@log10?$AA@ 000000018001f30c     LIBCMT:fpexcept.obj
 0002:00006314       ??_C@_04COOMCNPB@sinh?$AA@ 000000018001f314     LIBCMT:fpexcept.obj
 0002:0000631c       ??_C@_04HPJJNFIM@cosh?$AA@ 000000018001f31c     LIBCMT:fpexcept.obj
 0002:00006324       ??_C@_04FJHINJAO@tanh?$AA@ 000000018001f324     LIBCMT:fpexcept.obj
 0002:0000632c       ??_C@_04FIHNOPOL@asin?$AA@ 000000018001f32c     LIBCMT:fpexcept.obj
 0002:00006334       ??_C@_04PDIFKINK@acos?$AA@ 000000018001f334     LIBCMT:fpexcept.obj
 0002:0000633c       ??_C@_04MLLJIGOK@atan?$AA@ 000000018001f33c     LIBCMT:fpexcept.obj
 0002:00006344       ??_C@_05KNGEOGJB@atan2?$AA@ 000000018001f344     LIBCMT:fpexcept.obj
 0002:0000634c       ??_C@_04EIAKFFMI@sqrt?$AA@ 000000018001f34c     LIBCMT:fpexcept.obj
 0002:00006354       ??_C@_03BLEJJJBH@sin?$AA@  000000018001f354     LIBCMT:fpexcept.obj
 0002:00006358       ??_C@_03LALBNOCG@cos?$AA@  000000018001f358     LIBCMT:fpexcept.obj
 0002:0000635c       ??_C@_03IIINPABG@tan?$AA@  000000018001f35c     LIBCMT:fpexcept.obj
 0002:00006360       ??_C@_04GFPJNGEK@ceil?$AA@ 000000018001f360     LIBCMT:fpexcept.obj
 0002:00006368       ??_C@_05PBJFFIGL@floor?$AA@ 000000018001f368     LIBCMT:fpexcept.obj
 0002:00006370       ??_C@_04ODHECPBC@fabs?$AA@ 000000018001f370     LIBCMT:fpexcept.obj
 0002:00006378       ??_C@_04EHEDPDJG@modf?$AA@ 000000018001f378     LIBCMT:fpexcept.obj
 0002:00006380       ??_C@_05CEJMAHNP@ldexp?$AA@ 000000018001f380     LIBCMT:fpexcept.obj
 0002:00006388       ??_C@_05KBKMEMPO@_cabs?$AA@ 000000018001f388     LIBCMT:fpexcept.obj
 0002:00006390       ??_C@_04KEPJIHGP@fmod?$AA@ 000000018001f390     LIBCMT:fpexcept.obj
 0002:00006398       ??_C@_05GKKHEGJL@frexp?$AA@ 000000018001f398     LIBCMT:fpexcept.obj
 0002:000063a0       ??_C@_03MJLDFKDL@_y0?$AA@  000000018001f3a0     LIBCMT:fpexcept.obj
 0002:000063a4       ??_C@_03NAKIGLHK@_y1?$AA@  000000018001f3a4     LIBCMT:fpexcept.obj
 0002:000063a8       ??_C@_03ONILCKOB@_yn?$AA@  000000018001f3a8     LIBCMT:fpexcept.obj
 0002:000063ac       ??_C@_05JGDBENOH@_logb?$AA@ 000000018001f3ac     LIBCMT:fpexcept.obj
 0002:000063b8       ??_C@_0L@KDOEJCKC@_nextafter?$AA@ 000000018001f3b8     LIBCMT:fpexcept.obj
 0002:000063d0       __lookuptable_s            000000018001f3d0     LIBCMT:outputs.obj
 0002:00006430       __newctype                 000000018001f430     LIBCMT:ctype.obj
 0002:00006730       _wctype                    000000018001f730     LIBCMT:ctype.obj
 0002:00006940       __newclmap                 000000018001f940     LIBCMT:ctype.obj
 0002:00006ac0       __newcumap                 000000018001fac0     LIBCMT:ctype.obj
 0002:00006c40       __rg_language_count        000000018001fc40     LIBCMT:getqloc.obj
 0002:00006c44       __rg_country_count         000000018001fc44     LIBCMT:getqloc.obj
 0002:00006f68       ??_C@_08EHJDFFNH@__based?$CI?$AA@ 000000018001ff68     LIBCMT:undname.obj
 0002:00006f78       ??_C@_07KOLFKCDI@__cdecl?$AA@ 000000018001ff78     LIBCMT:undname.obj
 0002:00006f80       ??_C@_08GHMPAG@__pascal?$AA@ 000000018001ff80     LIBCMT:undname.obj
 0002:00006f90       ??_C@_09IFJBGAPI@__stdcall?$AA@ 000000018001ff90     LIBCMT:undname.obj
 0002:00006fa0       ??_C@_0L@NPHFGOKO@__thiscall?$AA@ 000000018001ffa0     LIBCMT:undname.obj
 0002:00006fb0       ??_C@_0L@JMKHOMEK@__fastcall?$AA@ 000000018001ffb0     LIBCMT:undname.obj
 0002:00006fc0       ??_C@_0N@BCKKPABJ@__vectorcall?$AA@ 000000018001ffc0     LIBCMT:undname.obj
 0002:00006fd0       ??_C@_09HIJEGCPM@__clrcall?$AA@ 000000018001ffd0     LIBCMT:undname.obj
 0002:00006fdc       ??_C@_06GHPCKEAG@__eabi?$AA@ 000000018001ffdc     LIBCMT:undname.obj
 0002:00006fe8       ??_C@_07JOMMBBKO@__ptr64?$AA@ 000000018001ffe8     LIBCMT:undname.obj
 0002:00006ff0       ??_C@_0L@PILCLIHE@__restrict?$AA@ 000000018001fff0     LIBCMT:undname.obj
 0002:00007000       ??_C@_0M@GFIIJFMG@__unaligned?$AA@ 0000000180020000     LIBCMT:undname.obj
 0002:00007010       ??_C@_09DHDLOLLB@restrict?$CI?$AA@ 0000000180020010     LIBCMT:undname.obj
 0002:0000701c       ??_C@_04NIHEBCM@?5new?$AA@ 000000018002001c     LIBCMT:undname.obj
 0002:00007028       ??_C@_07FPCDHGMM@?5delete?$AA@ 0000000180020028     LIBCMT:undname.obj
 0002:00007030       ??_C@_01NEMOKFLO@?$DN?$AA@ 0000000180020030     LIBCMT:undname.obj
 0002:00007034       ??_C@_02GPIOPFAK@?$DO?$DO?$AA@ 0000000180020034     LIBCMT:undname.obj
 0002:00007038       ??_C@_02FODMEDOG@?$DM?$DM?$AA@ 0000000180020038     LIBCMT:undname.obj
 0002:0000703c       ??_C@_01DCLJPIOD@?$CB?$AA@ 000000018002003c     LIBCMT:undname.obj
 0002:00007040       ??_C@_02EGOFBIJA@?$DN?$DN?$AA@ 0000000180020040     LIBCMT:undname.obj
 0002:00007044       ??_C@_02FDNJECIE@?$CB?$DN?$AA@ 0000000180020044     LIBCMT:undname.obj
 0002:00007048       ??_C@_02GPECMEKF@?$FL?$FN?$AA@ 0000000180020048     LIBCMT:undname.obj
 0002:00007050       ??_C@_08LHJFAFGD@operator?$AA@ 0000000180020050     LIBCMT:undname.obj
 0002:0000705c       ??_C@_02HBOOOICD@?9?$DO?$AA@ 000000018002005c     LIBCMT:undname.obj
 0002:00007060       ??_C@_01NBENCBCI@?$CK?$AA@ 0000000180020060     LIBCMT:undname.obj
 0002:00007064       ??_C@_02ECNGHCIF@?$CL?$CL?$AA@ 0000000180020064     LIBCMT:undname.obj
 0002:00007068       ??_C@_02BAABKJLB@?9?9?$AA@ 0000000180020068     LIBCMT:undname.obj
 0002:0000706c       ??_C@_01JOAMLHOP@?9?$AA@   000000018002006c     LIBCMT:undname.obj
 0002:00007070       ??_C@_01MIFGBAGJ@?$CL?$AA@ 0000000180020070     LIBCMT:undname.obj
 0002:00007074       ??_C@_01HNPIGOCE@?$CG?$AA@ 0000000180020074     LIBCMT:undname.obj
 0002:00007078       ??_C@_03MNHNFDLC@?9?$DO?$CK?$AA@ 0000000180020078     LIBCMT:undname.obj
 0002:0000707c       ??_C@_01KMDKNFGN@?1?$AA@   000000018002007c     LIBCMT:undname.obj
 0002:00007080       ??_C@_01FGNFDNOH@?$CF?$AA@ 0000000180020080     LIBCMT:undname.obj
 0002:00007084       ??_C@_01MNNFJEPP@?$DM?$AA@ 0000000180020084     LIBCMT:undname.obj
 0002:00007088       ??_C@_02EHCHHCKH@?$DM?$DN?$AA@ 0000000180020088     LIBCMT:undname.obj
 0002:0000708c       ??_C@_01PPODPGHN@?$DO?$AA@ 000000018002008c     LIBCMT:undname.obj
 0002:00007090       ??_C@_02EEKDKGMJ@?$DO?$DN?$AA@ 0000000180020090     LIBCMT:undname.obj
 0002:00007094       ??_C@_01IHBHIGKO@?0?$AA@   0000000180020094     LIBCMT:undname.obj
 0002:00007098       ??_C@_02HCKGKOFO@?$CI?$CJ?$AA@ 0000000180020098     LIBCMT:undname.obj
 0002:0000709c       ??_C@_01PJKLJHI@?$HO?$AA@  000000018002009c     LIBCMT:undname.obj
 0002:000070a0       ??_C@_01JKBOJNNK@?$FO?$AA@ 00000001800200a0     LIBCMT:undname.obj
 0002:000070a4       ??_C@_01DNKMNLPK@?$HM?$AA@ 00000001800200a4     LIBCMT:undname.obj
 0002:000070a8       ??_C@_02PPKAJPJL@?$CG?$CG?$AA@ 00000001800200a8     LIBCMT:undname.obj
 0002:000070ac       ??_C@_02NONPIBCD@?$HM?$HM?$AA@ 00000001800200ac     LIBCMT:undname.obj
 0002:000070b0       ??_C@_02FPIMKNGF@?$CK?$DN?$AA@ 00000001800200b0     LIBCMT:undname.obj
 0002:000070b4       ??_C@_02FOEOMHFC@?$CL?$DN?$AA@ 00000001800200b4     LIBCMT:undname.obj
 0002:000070b8       ??_C@_02FKMDLLOA@?9?$DN?$AA@ 00000001800200b8     LIBCMT:undname.obj
 0002:000070bc       ??_C@_02FJEHGPIO@?1?$DN?$AA@ 00000001800200bc     LIBCMT:undname.obj
 0002:000070c0       ??_C@_02FENAOKFI@?$CF?$DN?$AA@ 00000001800200c0     LIBCMT:undname.obj
 0002:000070c4       ??_C@_03IKFCCPFF@?$DO?$DO?$DN?$AA@ 00000001800200c4     LIBCMT:undname.obj
 0002:000070c8       ??_C@_03CDNPDDLA@?$DM?$DM?$DN?$AA@ 00000001800200c8     LIBCMT:undname.obj
 0002:000070cc       ??_C@_02FGJGFEAB@?$CG?$DN?$AA@ 00000001800200cc     LIBCMT:undname.obj
 0002:000070d0       ??_C@_02DHLNPPGH@?$HM?$DN?$AA@ 00000001800200d0     LIBCMT:undname.obj
 0002:000070d4       ??_C@_02MHEGNOJ@?$FO?$DN?$AA@ 00000001800200d4     LIBCMT:undname.obj
 0002:000070d8       ??_C@_09IFPLHPGF@?$GAvftable?8?$AA@ 00000001800200d8     LIBCMT:undname.obj
 0002:000070e8       ??_C@_09BLBHBJP@?$GAvbtable?8?$AA@ 00000001800200e8     LIBCMT:undname.obj
 0002:000070f8       ??_C@_07FEEIOKP@?$GAvcall?8?$AA@ 00000001800200f8     LIBCMT:undname.obj
 0002:00007100       ??_C@_08LLFFHHDJ@?$GAtypeof?8?$AA@ 0000000180020100     LIBCMT:undname.obj
 0002:00007110       ??_C@_0BF@KDPPACIK@?$GAlocal?5static?5guard?8?$AA@ 0000000180020110     LIBCMT:undname.obj
 0002:00007128       ??_C@_08OBABFOLI@?$GAstring?8?$AA@ 0000000180020128     LIBCMT:undname.obj
 0002:00007138       ??_C@_0BD@JDLKDPAB@?$GAvbase?5destructor?8?$AA@ 0000000180020138     LIBCMT:undname.obj
 0002:00007150       ??_C@_0BN@DEGPLNFK@?$GAvector?5deleting?5destructor?8?$AA@ 0000000180020150     LIBCMT:undname.obj
 0002:00007170       ??_C@_0BO@OBMKPJIG@?$GAdefault?5constructor?5closure?8?$AA@ 0000000180020170     LIBCMT:undname.obj
 0002:00007190       ??_C@_0BN@IMDCHIKM@?$GAscalar?5deleting?5destructor?8?$AA@ 0000000180020190     LIBCMT:undname.obj
 0002:000071b0       ??_C@_0BO@PFGOCPJJ@?$GAvector?5constructor?5iterator?8?$AA@ 00000001800201b0     LIBCMT:undname.obj
 0002:000071d0       ??_C@_0BN@LFPFMEDL@?$GAvector?5destructor?5iterator?8?$AA@ 00000001800201d0     LIBCMT:undname.obj
 0002:000071f0       ??_C@_0CE@IKBNEHA@?$GAvector?5vbase?5constructor?5iterat@ 00000001800201f0     LIBCMT:undname.obj
 0002:00007218       ??_C@_0BL@NILFHHPC@?$GAvirtual?5displacement?5map?8?$AA@ 0000000180020218     LIBCMT:undname.obj
 0002:00007238       ??_C@_0CB@JONCMFFK@?$GAeh?5vector?5constructor?5iterator?8@ 0000000180020238     LIBCMT:undname.obj
 0002:00007260       ??_C@_0CA@GCEOPDGL@?$GAeh?5vector?5destructor?5iterator?8?$AA@ 0000000180020260     LIBCMT:undname.obj
 0002:00007280       ??_C@_0CH@OOJPLCPH@?$GAeh?5vector?5vbase?5constructor?5ite@ 0000000180020280     LIBCMT:undname.obj
 0002:000072a8       ??_C@_0BL@LLKPOHJI@?$GAcopy?5constructor?5closure?8?$AA@ 00000001800202a8     LIBCMT:undname.obj
 0002:000072c8       ??_C@_0BA@KBCDOMBN@?$GAudt?5returning?8?$AA@ 00000001800202c8     LIBCMT:undname.obj
 0002:000072d8       ??_C@_03KLGMFNMG@?$GAEH?$AA@ 00000001800202d8     LIBCMT:undname.obj
 0002:000072dc       ??_C@_05KHLCHHI@?$GARTTI?$AA@ 00000001800202dc     LIBCMT:undname.obj
 0002:000072e8       ??_C@_0BA@KKLDJDLB@?$GAlocal?5vftable?8?$AA@ 00000001800202e8     LIBCMT:undname.obj
 0002:000072f8       ??_C@_0CE@IIHCMGGL@?$GAlocal?5vftable?5constructor?5closu@ 00000001800202f8     LIBCMT:undname.obj
 0002:0000731c       ??_C@_06FHBGPFGH@?5new?$FL?$FN?$AA@ 000000018002031c     LIBCMT:undname.obj
 0002:00007328       ??_C@_09LBNFPBCA@?5delete?$FL?$FN?$AA@ 0000000180020328     LIBCMT:undname.obj
 0002:00007338       ??_C@_0P@HJKNJFNN@?$GAomni?5callsig?8?$AA@ 0000000180020338     LIBCMT:undname.obj
 0002:00007348       ??_C@_0BL@CNOONJFP@?$GAplacement?5delete?5closure?8?$AA@ 0000000180020348     LIBCMT:undname.obj
 0002:00007368       ??_C@_0BN@CKNJLHMB@?$GAplacement?5delete?$FL?$FN?5closure?8?$AA@ 0000000180020368     LIBCMT:undname.obj
 0002:00007388       ??_C@_0CG@CFDHKGGD@?$GAmanaged?5vector?5constructor?5iter@ 0000000180020388     LIBCMT:undname.obj
 0002:000073b0       ??_C@_0CF@IMGKMJNO@?$GAmanaged?5vector?5destructor?5itera@ 00000001800203b0     LIBCMT:undname.obj
 0002:000073d8       ??_C@_0CG@HLDDJMAG@?$GAeh?5vector?5copy?5constructor?5iter@ 00000001800203d8     LIBCMT:undname.obj
 0002:00007400       ??_C@_0CM@FCBBDIGB@?$GAeh?5vector?5vbase?5copy?5constructo@ 0000000180020400     LIBCMT:undname.obj
 0002:00007430       ??_C@_0BL@CLIPGLGB@?$GAdynamic?5initializer?5for?5?8?$AA@ 0000000180020430     LIBCMT:undname.obj
 0002:00007450       ??_C@_0CB@PDBIFEP@?$GAdynamic?5atexit?5destructor?5for?5?8@ 0000000180020450     LIBCMT:undname.obj
 0002:00007478       ??_C@_0CD@CGAJBKEJ@?$GAvector?5copy?5constructor?5iterato@ 0000000180020478     LIBCMT:undname.obj
 0002:000074a0       ??_C@_0CJ@GJELGAMM@?$GAvector?5vbase?5copy?5constructor?5i@ 00000001800204a0     LIBCMT:undname.obj
 0002:000074d0       ??_C@_0CL@FGIJHLCE@?$GAmanaged?5vector?5copy?5constructor@ 00000001800204d0     LIBCMT:undname.obj
 0002:00007500       ??_C@_0BM@PMGGMLDN@?$GAlocal?5static?5thread?5guard?8?$AA@ 0000000180020500     LIBCMT:undname.obj
 0002:00007520       ??_C@_0BC@DAFEJGAK@?5Type?5Descriptor?8?$AA@ 0000000180020520     LIBCMT:undname.obj
 0002:00007538       ??_C@_0BM@LDKODKLH@?5Base?5Class?5Descriptor?5at?5?$CI?$AA@ 0000000180020538     LIBCMT:undname.obj
 0002:00007558       ??_C@_0BD@LGICGFMM@?5Base?5Class?5Array?8?$AA@ 0000000180020558     LIBCMT:undname.obj
 0002:00007570       ??_C@_0BN@MECKDCOJ@?5Class?5Hierarchy?5Descriptor?8?$AA@ 0000000180020570     LIBCMT:undname.obj
 0002:00007590       ??_C@_0BK@CFCOFLF@?5Complete?5Object?5Locator?8?$AA@ 0000000180020590     LIBCMT:undname.obj
 0002:000075ac       ??_C@_06PGGFOGJG@1?$CDSNAN?$AA@ 00000001800205ac     LIBCMT:x10fout.obj
 0002:000075b4       ??_C@_05PHHOCPM@1?$CDIND?$AA@ 00000001800205b4     LIBCMT:x10fout.obj
 0002:000075bc       ??_C@_05DNEBIAHO@1?$CDINF?$AA@ 00000001800205bc     LIBCMT:x10fout.obj
 0002:000075c4       ??_C@_06IMKFLFPG@1?$CDQNAN?$AA@ 00000001800205c4     LIBCMT:x10fout.obj
 0002:000075d0       ??_C@_1BA@BALFACEM@?$AAC?$AAO?$AAN?$AAO?$AAU?$AAT?$AA$?$AA?$AA@ 00000001800205d0     LIBCMT:initcon.obj
 0002:000075e0       ??_C@_0BA@JFNIOLAK@string?5too?5long?$AA@ 00000001800205e0     serialport.obj
 0002:000075f0       ??_C@_1JC@GKPKAFOC@?$AAc?$AA?3?$AA?2?$AAp?$AAr?$AAo?$AAj?$AAe?$AAc?$AAt?$AAs?$AA?2?$AAn?$AAo?$AAd?$AAe?$AA?9?$AAs?$AAe?$AAr?$AAi?$AAa?$AAl?$AAp?$AAo?$AAr?$AAt?$AA?2?$AAn?$AAo?$AAd?$AAe@ 00000001800205f0     serialport.obj
 0002:00007690       ??_C@_1FK@CBGIJHDF@?$AAv?$AAa?$AAl?$AAu?$AAe?$AA?4?$AAs?$AAi?$AAz?$AAe?$AA?$CI?$AA?$CJ?$AA?5?$AA?$DM?$AA?$DN?$AA?5?$AAI?$AAN?$AAT?$AA_?$AAM?$AAA?$AAX?$AA?5?$AA?$CG?$AA?$CG?$AA?5?$AA?$CC?$AAs?$AAt?$AAr?$AAi@ 0000000180020690     serialport.obj
 0002:000076f0       ??_C@_1GG@HLBHJFHD@?$AAC?$AA?3?$AA?2?$AAp?$AAr?$AAo?$AAj?$AAe?$AAc?$AAt?$AAs?$AA?2?$AAn?$AAo?$AAd?$AAe?$AA?9?$AAs?$AAe?$AAr?$AAi?$AAa?$AAl?$AAp?$AAo?$AAr?$AAt?$AA?2?$AAn?$AAo?$AAd?$AAe@ 00000001800206f0     serialport.obj
 0002:00007758       ??_C@_1BO@OPFMAOCA@?$AAl?$AAe?$AAn?$AA?5?$AA?$DM?$AA?$DN?$AA?5?$AAI?$AAN?$AAT?$AA_?$AAM?$AAA?$AAX?$AA?$AA@ 0000000180020758     serialport.obj
 0002:00007778       ??_C@_1BE@CKDJNAPC@?$AAs?$AAt?$AAr?$AA_?$AA?5?$AA?$CB?$AA?$DN?$AA?5?$AA0?$AA?$AA@ 0000000180020778     serialport.obj
 0002:00007790       ??_C@_0CA@PHEBDBMF@First?5argument?5must?5be?5a?5string?$AA@ 0000000180020790     serialport.obj
 0002:000077b0       ??_C@_0CC@DOLIGLGO@Second?5argument?5must?5be?5an?5objec@ 00000001800207b0     serialport.obj
 0002:000077d8       ??_C@_0CC@KNCIJJMF@Third?5argument?5must?5be?5a?5functio@ 00000001800207d8     serialport.obj
 0002:00007800       ??_C@_08NACMADDF@baudRate?$AA@ 0000000180020800     serialport.obj
 0002:00007810       ??_C@_08OMEAOKAC@dataBits?$AA@ 0000000180020810     serialport.obj
 0002:0000781c       ??_C@_06CFGKCFEA@parity?$AA@ 000000018002081c     serialport.obj
 0002:00007828       ??_C@_08LNOJODPP@stopBits?$AA@ 0000000180020828     serialport.obj
 0002:00007834       ??_C@_06EJNMIGBP@rtscts?$AA@ 0000000180020834     serialport.obj
 0002:0000783c       ??_C@_03MIMFGCKE@xon?$AA@  000000018002083c     serialport.obj
 0002:00007840       ??_C@_04OMMHDPAK@xoff?$AA@ 0000000180020840     serialport.obj
 0002:00007848       ??_C@_04MPFBBHBP@xany?$AA@ 0000000180020848     serialport.obj
 0002:00007850       ??_C@_05HDEOENJK@hupcl?$AA@ 0000000180020850     serialport.obj
 0002:00007858       ??_C@_04MKMCLCOO@lock?$AA@ 0000000180020858     serialport.obj
 0002:00007860       ??_C@_0BO@BHDHAAIC@First?5argument?5must?5be?5an?5int?$AA@ 0000000180020860     serialport.obj
 0002:00007880       ??_C@_0CJ@DKEFGEGN@?$CCbaudRate?$CC?5must?5be?5set?5on?5option@ 0000000180020880     serialport.obj
 0002:000078b0       ??_C@_0CD@FDCLPLBL@Second?5argument?5must?5be?5a?5functi@ 00000001800208b0     serialport.obj
 0002:000078d4       ??_C@_03JOOIBBDJ@brk?$AA@  00000001800208d4     serialport.obj
 0002:000078d8       ??_C@_03EIGHKCEN@rts?$AA@  00000001800208d8     serialport.obj
 0002:000078dc       ??_C@_03KAMCJCLH@cts?$AA@  00000001800208dc     serialport.obj
 0002:000078e0       ??_C@_03CEAOJLEP@dtr?$AA@  00000001800208e0     serialport.obj
 0002:000078e4       ??_C@_03CBEBINMK@dsr?$AA@  00000001800208e4     serialport.obj
 0002:000078e8       ??_C@_03CBPPJLGN@dcd?$AA@  00000001800208e8     serialport.obj
 0002:000078ec       ??_C@_04CGFJFPFD@none?$AA@ 00000001800208ec     serialport.obj
 0002:000078f4       ??_C@_04JDDJEAHN@even?$AA@ 00000001800208f4     serialport.obj
 0002:000078fc       ??_C@_04KJJCFCK@mark?$AA@  00000001800208fc     serialport.obj
 0002:00007904       ??_C@_03PDLBAKOJ@odd?$AA@  0000000180020904     serialport.obj
 0002:00007908       ??_C@_05OLNILLAB@space?$AA@ 0000000180020908     serialport.obj
 0002:00007910       ??_C@_03KCHOJKKI@set?$AA@  0000000180020910     serialport.obj
 0002:00007914       ??_C@_03HNAFFKGA@get?$AA@  0000000180020914     serialport.obj
 0002:00007918       ??_C@_04PMOCAHAA@open?$AA@ 0000000180020918     serialport.obj
 0002:00007920       ??_C@_06HDLLMMEJ@update?$AA@ 0000000180020920     serialport.obj
 0002:00007928       ??_C@_05LBOHBHFK@close?$AA@ 0000000180020928     serialport.obj
 0002:00007930       ??_C@_05GLCAEPFP@flush?$AA@ 0000000180020930     serialport.obj
 0002:00007938       ??_C@_05GBKIIGFP@drain?$AA@ 0000000180020938     serialport.obj
 0002:00007940       ??_C@_05NGFEDHGN@write?$AA@ 0000000180020940     serialport.obj
 0002:00007948       ??_C@_04POLDLDMI@read?$AA@ 0000000180020948     serialport.obj
 0002:00007950       ??_C@_04DONFEANM@list?$AA@ 0000000180020950     serialport.obj
 0002:00007958       ??_C@_0BG@BKNJDEGG@?4?4?2src?2serialport?4cpp?$AA@ 0000000180020958     serialport.obj
 0002:00007970       ??_C@_0L@BMBGKDA@serialport?$AA@ 0000000180020970     serialport.obj
 0002:00007980       ??_C@_0BI@CFPLBAOH@invalid?5string?5position?$AA@ 0000000180020980     serialport.obj
 0002:00007998       ??_C@_00CNPNBAHC@?$AA@     0000000180020998     serialport_win.obj
 0002:000079a0       ??_C@_0BD@BLPNGLIH@?$CFs?3?5File?5not?5found?$AA@ 00000001800209a0     serialport_win.obj
 0002:000079b8       ??_C@_0BD@GPOKPNCK@?$CFs?3?5Invalid?5handle?$AA@ 00000001800209b8     serialport_win.obj
 0002:000079d0       ??_C@_0BC@KPJPBKFJ@?$CFs?3?5Access?5denied?$AA@ 00000001800209d0     serialport_win.obj
 0002:000079e8       ??_C@_0BG@IKDEGMJ@?$CFs?3?5Operation?5aborted?$AA@ 00000001800209e8     serialport_win.obj
 0002:00007a00       ??_C@_0BK@JFNDFHEK@?$CFs?3?5Unknown?5error?5code?5?$CFd?$AA@ 0000000180020a00     serialport_win.obj
 0002:00007a1c       ??_C@_04GBDIODIA@?2?2?4?2?$AA@ 0000000180020a1c     serialport_win.obj
 0002:00007a28       ??_C@_0L@GJHAJNIB@Opening?5?$CFs?$AA@ 0000000180020a28     serialport_win.obj
 0002:00007a38       ??_C@_0BE@PBLLKEKO@Open?5?$CIGetCommState?$CJ?$AA@ 0000000180020a38     serialport_win.obj
 0002:00007a50       ??_C@_0BE@IOKFBHNJ@Open?5?$CISetCommState?$CJ?$AA@ 0000000180020a50     serialport_win.obj
 0002:00007a68       ??_C@_0BH@KCOGJOCP@Open?5?$CISetCommTimeouts?$CJ?$AA@ 0000000180020a68     serialport_win.obj
 0002:00007a80       ??_C@_0BG@MOOPOEIC@Update?5?$CIGetCommState?$CJ?$AA@ 0000000180020a80     serialport_win.obj
 0002:00007a98       ??_C@_0BG@LBPBFHPF@Update?5?$CISetCommState?$CJ?$AA@ 0000000180020a98     serialport_win.obj
 0002:00007ab0       ??_C@_0CK@NCBLKDEH@Setting?5options?5on?5COM?5port?5?$CISet@ 0000000180020ab0     serialport_win.obj
 0002:00007ae0       ??_C@_0DK@ENLNMKEH@Getting?5control?5settings?5on?5COM?5@ 0000000180020ae0     serialport_win.obj
 0002:00007b20       ??_C@_0CB@CADFKPNI@Second?5argument?5must?5be?5a?5buffer@ 0000000180020b20     serialport_win.obj
 0002:00007b48       ??_C@_0CA@DEKDENAJ@Writing?5to?5COM?5port?5?$CIWriteFile?$CJ?$AA@ 0000000180020b48     serialport_win.obj
 0002:00007b68       ??_C@_0CK@BGPOGOML@Writing?5to?5COM?5port?5?$CIGetOverlapp@ 0000000180020b68     serialport_win.obj
 0002:00007b98       ??_C@_0BM@MLNOLJIP@First?5argument?5must?5be?5a?5fd?$AA@ 0000000180020b98     serialport_win.obj
 0002:00007bb8       ??_C@_0BO@KMONFNJC@Third?5argument?5must?5be?5an?5int?$AA@ 0000000180020bb8     serialport_win.obj
 0002:00007bd8       ??_C@_0BP@MKPMNBEE@Fourth?5argument?5must?5be?5an?5int?$AA@ 0000000180020bd8     serialport_win.obj
 0002:00007c00       ??_C@_0ED@DHOIOBMO@?8bytesToRead?8?5?$CL?5?8offset?8?5cannot?5@ 0000000180020c00     serialport_win.obj
 0002:00007c48       ??_C@_0CC@EDEMHEPP@Fifth?5argument?5must?5be?5a?5functio@ 0000000180020c48     serialport_win.obj
 0002:00007c70       ??_C@_0CB@IFPFGDDE@Reading?5from?5COM?5port?5?$CIReadFile?$CJ@ 0000000180020c70     serialport_win.obj
 0002:00007c98       ??_C@_0CM@KIDAHMDM@Reading?5from?5COM?5port?5?$CIGetOverla@ 0000000180020c98     serialport_win.obj
 0002:00007cc8       ??_C@_0N@MDJJJHMB@kernel32?4dll?$AA@ 0000000180020cc8     serialport_win.obj
 0002:00007cd8       ??_C@_0L@COJLGOAG@CancelIoEx?$AA@ 0000000180020cd8     serialport_win.obj
 0002:00007ce8       ??_C@_0CB@HOPFDBNI@Closing?5connection?5?$CICloseHandle?$CJ@ 0000000180020ce8     serialport_win.obj
 0002:00007d10       ??_C@_0CC@LODBDECI@First?5argument?5must?5be?5a?5functio@ 0000000180020d10     serialport_win.obj
 0002:00007d34       ??_C@_04CCCCEBLJ@VID_?$AA@ 0000000180020d34     serialport_win.obj
 0002:00007d3c       ??_C@_04KNGCLEBJ@PID_?$AA@ 0000000180020d3c     serialport_win.obj
 0002:00007d48       ??_C@_08LFPHCHDK@PortName?$AA@ 0000000180020d48     serialport_win.obj
 0002:00007d54       ??_C@_03GJALCMIF@COM?$AA@  0000000180020d54     serialport_win.obj
 0002:00007d58       ??_C@_07DBPBBGJJ@comName?$AA@ 0000000180020d58     serialport_win.obj
 0002:00007d60       ??_C@_0N@KCKFIEGL@manufacturer?$AA@ 0000000180020d60     serialport_win.obj
 0002:00007d70       ??_C@_0N@OMOHFKCJ@serialNumber?$AA@ 0000000180020d70     serialport_win.obj
 0002:00007d80       ??_C@_05HGPICCMB@pnpId?$AA@ 0000000180020d80     serialport_win.obj
 0002:00007d88       ??_C@_0L@BOGINKLP@locationId?$AA@ 0000000180020d88     serialport_win.obj
 0002:00007d98       ??_C@_08OOCGBFEC@vendorId?$AA@ 0000000180020d98     serialport_win.obj
 0002:00007da8       ??_C@_09FNKBJNGL@productId?$AA@ 0000000180020da8     serialport_win.obj
 0002:00007db8       ??_C@_0CA@HDFPFIDE@Flushing?5connection?5?$CIPurgeComm?$CJ?$AA@ 0000000180020db8     serialport_win.obj
 0002:00007dd8       ??_C@_0CH@KHNGIEJJ@Draining?5connection?5?$CIFlushFileBu@ 0000000180020dd8     serialport_win.obj
 0002:00007e00       ??_C@_0BB@MOGOBHAF@list?$DMT?$DO?5too?5long?$AA@ 0000000180020e00     serialport_win.obj
 0002:00007e18       ??_C@_08HCOMDCCD@iojs?4exe?$AA@ 0000000180020e18     win_delay_load_hook.obj
 0002:00007e28       ??_C@_08JDDNMFDB@node?4exe?$AA@ 0000000180020e28     win_delay_load_hook.obj
 0002:00008450       __real@3ff6666666666666    0000000180021450     serialport.obj
 0002:00008458       __real@3ff999999999999a    0000000180021458     serialport.obj
 0002:00008460       __real@4000000000000000    0000000180021460     serialport.obj
 0002:00008790       _load_config_used          0000000180021790     LIBCMT:loadcfg.obj
 0002:00008868       ??_R1A@?0A@EA@exception@std@@8 0000000180021868     libcpmt:xthrow.obj
 0002:00008890       ??_R3exception@std@@8      0000000180021890     libcpmt:xthrow.obj
 0002:000088a8       ??_R2exception@std@@8      00000001800218a8     libcpmt:xthrow.obj
 0002:000088b8       ??_R4bad_alloc@std@@6B@    00000001800218b8     libcpmt:xthrow.obj
 0002:000088e0       ??_R3bad_alloc@std@@8      00000001800218e0     libcpmt:xthrow.obj
 0002:000088f8       ??_R2bad_alloc@std@@8      00000001800218f8     libcpmt:xthrow.obj
 0002:00008910       ??_R1A@?0A@EA@bad_alloc@std@@8 0000000180021910     libcpmt:xthrow.obj
 0002:00008938       ??_R4logic_error@std@@6B@  0000000180021938     libcpmt:xthrow.obj
 0002:00008960       ??_R3logic_error@std@@8    0000000180021960     libcpmt:xthrow.obj
 0002:00008978       ??_R2logic_error@std@@8    0000000180021978     libcpmt:xthrow.obj
 0002:00008990       ??_R1A@?0A@EA@logic_error@std@@8 0000000180021990     libcpmt:xthrow.obj
 0002:000089b8       ??_R4length_error@std@@6B@ 00000001800219b8     libcpmt:xthrow.obj
 0002:000089e0       ??_R3length_error@std@@8   00000001800219e0     libcpmt:xthrow.obj
 0002:000089f8       ??_R2length_error@std@@8   00000001800219f8     libcpmt:xthrow.obj
 0002:00008a18       ??_R1A@?0A@EA@length_error@std@@8 0000000180021a18     libcpmt:xthrow.obj
 0002:00008a40       ??_R4out_of_range@std@@6B@ 0000000180021a40     libcpmt:xthrow.obj
 0002:00008a68       ??_R3out_of_range@std@@8   0000000180021a68     libcpmt:xthrow.obj
 0002:00008a80       ??_R2out_of_range@std@@8   0000000180021a80     libcpmt:xthrow.obj
 0002:00008aa0       ??_R1A@?0A@EA@out_of_range@std@@8 0000000180021aa0     libcpmt:xthrow.obj
 0002:00008ac8       ??_R4type_info@@6B@        0000000180021ac8     LIBCMT:typinfo.obj
 0002:00008af0       ??_R3type_info@@8          0000000180021af0     LIBCMT:typinfo.obj
 0002:00008b08       ??_R2type_info@@8          0000000180021b08     LIBCMT:typinfo.obj
 0002:00008b18       ??_R1A@?0A@EA@type_info@@8 0000000180021b18     LIBCMT:typinfo.obj
 0002:00008b40       ??_R4exception@std@@6B@    0000000180021b40     LIBCMT:stdexcpt.obj
 0002:00008b68       ??_R4bad_exception@std@@6B@ 0000000180021b68     LIBCMT:frame.obj
 0002:00008b90       ??_R3bad_exception@std@@8  0000000180021b90     LIBCMT:frame.obj
 0002:00008ba8       ??_R2bad_exception@std@@8  0000000180021ba8     LIBCMT:frame.obj
 0002:00008bc0       ??_R1A@?0A@EA@bad_exception@std@@8 0000000180021bc0     LIBCMT:frame.obj
 0002:00008be8       __rtc_iaa                  0000000180021be8     LIBCMT:initsect.obj
 0002:00008bf0       __rtc_izz                  0000000180021bf0     LIBCMT:initsect.obj
 0002:00008bf8       __rtc_taa                  0000000180021bf8     LIBCMT:initsect.obj
 0002:00008c00       __rtc_tzz                  0000000180021c00     LIBCMT:initsect.obj
 0002:0000ad88       _TI2?AVbad_alloc@std@@     0000000180023d88     libcpmt:xthrow.obj
 0002:0000ada8       _CTA2?AVbad_alloc@std@@    0000000180023da8     libcpmt:xthrow.obj
 0002:0000adc0       _CT??_R0?AVbad_alloc@std@@@8??0bad_alloc@std@@QEAA@AEBV01@@Z24 0000000180023dc0     libcpmt:xthrow.obj
 0002:0000ade8       _CT??_R0?AVexception@std@@@8??0exception@std@@QEAA@AEBV01@@Z24 0000000180023de8     libcpmt:xthrow.obj
 0002:0000ae10       _CT??_R0?AVlogic_error@std@@@8??0logic_error@std@@QEAA@AEBV01@@Z24 0000000180023e10     libcpmt:xthrow.obj
 0002:0000ae38       _TI3?AVlength_error@std@@  0000000180023e38     libcpmt:xthrow.obj
 0002:0000ae58       _CTA3?AVlength_error@std@@ 0000000180023e58     libcpmt:xthrow.obj
 0002:0000ae78       _CT??_R0?AVlength_error@std@@@8??0length_error@std@@QEAA@AEBV01@@Z24 0000000180023e78     libcpmt:xthrow.obj
 0002:0000aea0       _TI3?AVout_of_range@std@@  0000000180023ea0     libcpmt:xthrow.obj
 0002:0000aec0       _CTA3?AVout_of_range@std@@ 0000000180023ec0     libcpmt:xthrow.obj
 0002:0000aee0       _CT??_R0?AVout_of_range@std@@@8??0out_of_range@std@@QEAA@AEBV01@@Z24 0000000180023ee0     libcpmt:xthrow.obj
 0002:0000af08       _TI2?AVbad_exception@std@@ 0000000180023f08     LIBCMT:frame.obj
 0002:0000af28       _CTA2?AVbad_exception@std@@ 0000000180023f28     LIBCMT:frame.obj
 0002:0000af40       _CT??_R0?AVbad_exception@std@@@8??0bad_exception@std@@QEAA@AEBV01@@Z24 0000000180023f40     LIBCMT:frame.obj
 0002:0000af64       __DELAY_IMPORT_DESCRIPTOR_node_exe 0000000180023f64     node:node.exe
 0002:0000af84       __NULL_DELAY_IMPORT_DESCRIPTOR 0000000180023f84     node:node.exe
 0002:0000b188       \177node_NULL_THUNK_DATA_DLN 0000000180024188     node:node.exe
 0002:0000c0c8       \177node_NULL_THUNK_DATA_DLB 00000001800250c8     node:node.exe
 0002:0000c308       __IMPORT_DESCRIPTOR_KERNEL32 0000000180025308     kernel32:KERNEL32.dll
 0002:0000c31c       __IMPORT_DESCRIPTOR_ADVAPI32 000000018002531c     advapi32:ADVAPI32.dll
 0002:0000c330       __IMPORT_DESCRIPTOR_SETUPAPI 0000000180025330     setupapi:SETUPAPI.dll
 0002:0000c344       __NULL_IMPORT_DESCRIPTOR   0000000180025344     kernel32:KERNEL32.dll
 0003:00000070       _fltused                   0000000180026070     LIBCMT:fpinit.obj
 0003:00000074       _ldused                    0000000180026074     LIBCMT:fpinit.obj
 0003:00000078       __security_cookie          0000000180026078     LIBCMT:gs_cookie.obj
 0003:00000080       __security_cookie_complement 0000000180026080     LIBCMT:gs_cookie.obj
 0003:00000088       __isa_available            0000000180026088     LIBCMT:cpu_disp.obj
 0003:0000008c       __isa_enabled              000000018002608c     LIBCMT:cpu_disp.obj
 0003:00000200       __abort_behavior           0000000180026200     LIBCMT:abort.obj
 0003:00000210       _iob                       0000000180026210     LIBCMT:_file.obj
 0003:000005d8       __nullstring               00000001800265d8     LIBCMT:output.obj
 0003:000005e0       __wnullstring              00000001800265e0     LIBCMT:output.obj
 0003:00000600       _mbctype                   0000000180026600     LIBCMT:mbctype.obj
 0003:00000710       _mbcasemap                 0000000180026710     LIBCMT:mbctype.obj
 0003:00000810       __initialmbcinfo           0000000180026810     LIBCMT:mbctype.obj
 0003:00000b30       __ptmbcinfo                0000000180026b30     LIBCMT:mbctype.obj
 0003:00000b38       __flsindex                 0000000180026b38     LIBCMT:tidtable.obj
 0003:00000b3c       __mb_cur_max               0000000180026b3c     LIBCMT:nlsdata.obj
 0003:00000b40       __wclocalestr              0000000180026b40     LIBCMT:nlsdata.obj
 0003:00000b50       __lc_time_c                0000000180026b50     LIBCMT:nlsdata.obj
 0003:00000e10       __ptlocinfo                0000000180026e10     LIBCMT:nlsdata.obj
 0003:00000e20       __initiallocinfo           0000000180026e20     LIBCMT:nlsdata.obj
 0003:00000f78       __globallocalestatus       0000000180026f78     LIBCMT:glstatus.obj
 0003:00000f90       __badioinfo                0000000180026f90     LIBCMT:ioinit.obj
 0003:00000ff0       _cfltcvt_tab               0000000180026ff0     LIBCMT:cmiscdat.obj
 0003:00001450       _matherr_flag              0000000180027450     LIBCMT:matherr.obj
 0003:00001460       __lconv_c                  0000000180027460     LIBCMT:lconv.obj
 0003:000014f8       __lconv_static_decimal     00000001800274f8     LIBCMT:lconv.obj
 0003:000014fc       __lconv_static_W_decimal   00000001800274fc     LIBCMT:lconv.obj
 0003:00001500       __lconv                    0000000180027500     LIBCMT:lconv.obj
 0003:00001508       _pctype                    0000000180027508     LIBCMT:ctype.obj
 0003:00001510       _pwctype                   0000000180027510     LIBCMT:ctype.obj
 0003:00001520       _d_inf                     0000000180027520     LIBCMT:util.obj
 0003:00001528       _d_ind                     0000000180027528     LIBCMT:util.obj
 0003:00001530       _d_max                     0000000180027530     LIBCMT:util.obj
 0003:00001538       _d_min                     0000000180027538     LIBCMT:util.obj
 0003:00001540       _d_mzero                   0000000180027540     LIBCMT:util.obj
 0003:00001578       _confh                     0000000180027578     LIBCMT:initcon.obj
 0003:00001580       _pow10pos                  0000000180027580     LIBCMT:constpow.obj
 0003:000016e0       _pow10neg                  00000001800276e0     LIBCMT:constpow.obj
 0003:00001840       _HUGE                      0000000180027840     LIBCMT:huge.obj
 0003:00001890       __pfnDliNotifyHook2        0000000180027890     win_delay_load_hook.obj
 0003:00001898       ??_R0?AVbad_alloc@std@@@8  0000000180027898     libcpmt:xthrow.obj
 0003:000018c0       ??_R0?AVexception@std@@@8  00000001800278c0     libcpmt:xthrow.obj
 0003:000018e8       ??_R0?AVlogic_error@std@@@8 00000001800278e8     libcpmt:xthrow.obj
 0003:00001910       ??_R0?AVlength_error@std@@@8 0000000180027910     libcpmt:xthrow.obj
 0003:00001938       ??_R0?AVout_of_range@std@@@8 0000000180027938     libcpmt:xthrow.obj
 0003:00001960       ??_R0?AVtype_info@@@8      0000000180027960     LIBCMT:typinfo.obj
 0003:00001980       ??_R0?AVbad_exception@std@@@8 0000000180027980     LIBCMT:frame.obj
 0003:000019a8       __imp_node_module_register 00000001800279a8     node:node.exe
 0003:000019b0       __imp_?MakeCallback@node@@YA?AV?$Local@VValue@v8@@@v8@@PEAVIsolate@3@V?$Local@VObject@v8@@@3@V?$Local@VFunction@v8@@@3@HPEAV23@@Z 00000001800279b0     node:node.exe
 0003:000019b8       __imp_uv_default_loop      00000001800279b8     node:node.exe
 0003:000019c0       __imp_?Global@Context@v8@@QEAA?AV?$Local@VObject@v8@@@2@XZ 00000001800279c0     node:node.exe
 0003:000019c8       __imp_?ToLocalEmpty@V8@v8@@CAXXZ 00000001800279c8     node:node.exe
 0003:000019d0       __imp_?FromJustIsNothing@V8@v8@@CAXXZ 00000001800279d0     node:node.exe
 0003:000019d8       __imp_?DisposeGlobal@V8@v8@@CAXPEAPEAVObject@internal@2@@Z 00000001800279d8     node:node.exe
 0003:000019e0       __imp_?GlobalizeReference@V8@v8@@CAPEAPEAVObject@internal@2@PEAVIsolate@42@PEAPEAV342@@Z 00000001800279e0     node:node.exe
 0003:000019e8       __imp_?Escape@EscapableHandleScope@v8@@AEAAPEAPEAVObject@internal@2@PEAPEAV342@@Z 00000001800279e8     node:node.exe
 0003:000019f0       __imp_??0EscapableHandleScope@v8@@QEAA@PEAVIsolate@1@@Z 00000001800279f0     node:node.exe
 0003:000019f8       __imp_?Int32Value@Value@v8@@QEBA?AV?$Maybe@H@2@V?$Local@VContext@v8@@@2@@Z 00000001800279f8     node:node.exe
 0003:00001a00       __imp_?NumberValue@Value@v8@@QEBA?AV?$Maybe@N@2@V?$Local@VContext@v8@@@2@@Z 0000000180027a00     node:node.exe
 0003:00001a08       __imp_?ToInt32@Value@v8@@QEBA?AV?$MaybeLocal@VInt32@v8@@@2@V?$Local@VContext@v8@@@2@@Z 0000000180027a08     node:node.exe
 0003:00001a10       __imp_?ToString@Value@v8@@QEBA?AV?$MaybeLocal@VString@v8@@@2@V?$Local@VContext@v8@@@2@@Z 0000000180027a10     node:node.exe
 0003:00001a18       __imp_?ToBoolean@Value@v8@@QEBA?AV?$MaybeLocal@VBoolean@v8@@@2@V?$Local@VContext@v8@@@2@@Z 0000000180027a18     node:node.exe
 0003:00001a20       __imp_?IsInt32@Value@v8@@QEBA_NXZ 0000000180027a20     node:node.exe
 0003:00001a28       __imp_?IsObject@Value@v8@@QEBA_NXZ 0000000180027a28     node:node.exe
 0003:00001a30       __imp_?IsFunction@Value@v8@@QEBA_NXZ 0000000180027a30     node:node.exe
 0003:00001a38       __imp_?SetClassName@FunctionTemplate@v8@@QEAAXV?$Local@VString@v8@@@2@@Z 0000000180027a38     node:node.exe
 0003:00001a40       __imp_?GetFunction@FunctionTemplate@v8@@QEAA?AV?$MaybeLocal@VFunction@v8@@@2@V?$Local@VContext@v8@@@2@@Z 0000000180027a40     node:node.exe
 0003:00001a48       __imp_?New@FunctionTemplate@v8@@SA?AV?$Local@VFunctionTemplate@v8@@@2@PEAVIsolate@2@P6AXAEBV?$FunctionCallbackInfo@VValue@v8@@@2@@ZV?$Local@VValue@v8@@@2@V?$Local@VSignature@v8@@@2@HW4ConstructorBehavior@2@@Z 0000000180027a48     node:node.exe
 0003:00001a50       __imp_?Error@Exception@v8@@SA?AV?$Local@VValue@v8@@@2@V?$Local@VString@v8@@@2@@Z 0000000180027a50     node:node.exe
 0003:00001a58       __imp_?TypeError@Exception@v8@@SA?AV?$Local@VValue@v8@@@2@V?$Local@VString@v8@@@2@@Z 0000000180027a58     node:node.exe
 0003:00001a60       __imp_??1Utf8Value@String@v8@@QEAA@XZ 0000000180027a60     node:node.exe
 0003:00001a68       __imp_??0Utf8Value@String@v8@@QEAA@V?$Local@VValue@v8@@@2@@Z 0000000180027a68     node:node.exe
 0003:00001a70       __imp_?NewFromUtf8@String@v8@@SA?AV?$MaybeLocal@VString@v8@@@2@PEAVIsolate@2@PEBDW4NewStringType@2@H@Z 0000000180027a70     node:node.exe
 0003:00001a78       __imp_?WriteUtf8@String@v8@@QEBAHPEADHPEAHH@Z 0000000180027a78     node:node.exe
 0003:00001a80       __imp_?Length@String@v8@@QEBAHXZ 0000000180027a80     node:node.exe
 0003:00001a88       __imp_?CreateHandle@HandleScope@v8@@KAPEAPEAVObject@internal@2@PEAVIsolate@42@PEAV342@@Z 0000000180027a88     node:node.exe
 0003:00001a90       __imp_?CreateHandle@HandleScope@v8@@CAPEAPEAVObject@internal@2@PEAVHeapObject@42@PEAV342@@Z 0000000180027a90     node:node.exe
 0003:00001a98       __imp_??1HandleScope@v8@@QEAA@XZ 0000000180027a98     node:node.exe
 0003:00001aa0       __imp_??0HandleScope@v8@@QEAA@PEAVIsolate@1@@Z 0000000180027aa0     node:node.exe
 0003:00001aa8       __imp_?Value@Boolean@v8@@QEBA_NXZ 0000000180027aa8     node:node.exe
 0003:00001ab0       __imp_?SlowGetInternalField@Object@v8@@AEAA?AV?$Local@VValue@v8@@@2@H@Z 0000000180027ab0     node:node.exe
 0003:00001ab8       __imp_?New@Object@v8@@SA?AV?$Local@VObject@v8@@@2@PEAVIsolate@2@@Z 0000000180027ab8     node:node.exe
 0003:00001ac0       __imp_?SetInternalField@Object@v8@@QEAAXHV?$Local@VValue@v8@@@2@@Z 0000000180027ac0     node:node.exe
 0003:00001ac8       __imp_?Has@Object@v8@@QEAA?AV?$Maybe@_N@2@V?$Local@VContext@v8@@@2@V?$Local@VValue@v8@@@2@@Z 0000000180027ac8     node:node.exe
 0003:00001ad0       __imp_?Get@Object@v8@@QEAA?AV?$MaybeLocal@VValue@v8@@@2@V?$Local@VContext@v8@@@2@V?$Local@VValue@v8@@@2@@Z 0000000180027ad0     node:node.exe
 0003:00001ad8       __imp_?Set@Object@v8@@QEAA_NV?$Local@VValue@v8@@@2@0@Z 0000000180027ad8     node:node.exe
 0003:00001ae0       __imp_?Value@Int32@v8@@QEBAHXZ 0000000180027ae0     node:node.exe
 0003:00001ae8       __imp_?SetInternalFieldCount@ObjectTemplate@v8@@QEAAXH@Z 0000000180027ae8     node:node.exe
 0003:00001af0       __imp_?NewInstance@ObjectTemplate@v8@@QEAA?AV?$MaybeLocal@VObject@v8@@@2@V?$Local@VContext@v8@@@2@@Z 0000000180027af0     node:node.exe
 0003:00001af8       __imp_?New@ObjectTemplate@v8@@SA?AV?$Local@VObjectTemplate@v8@@@2@PEAVIsolate@2@V?$Local@VFunctionTemplate@v8@@@2@@Z 0000000180027af8     node:node.exe
 0003:00001b00       __imp_?New@Integer@v8@@SA?AV?$Local@VInteger@v8@@@2@PEAVIsolate@2@H@Z 0000000180027b00     node:node.exe
 0003:00001b08       __imp_?ThrowException@Isolate@v8@@QEAA?AV?$Local@VValue@v8@@@2@V32@@Z 0000000180027b08     node:node.exe
 0003:00001b10       __imp_?GetCurrentContext@Isolate@v8@@QEAA?AV?$Local@VContext@v8@@@2@XZ 0000000180027b10     node:node.exe
 0003:00001b18       __imp_?GetCurrent@Isolate@v8@@SAPEAV12@XZ 0000000180027b18     node:node.exe
 0003:00001b20       __imp_?Value@External@v8@@QEBAPEAXXZ 0000000180027b20     node:node.exe
 0003:00001b28       __imp_?New@External@v8@@SA?AV?$Local@VExternal@v8@@@2@PEAVIsolate@2@PEAX@Z 0000000180027b28     node:node.exe
 0003:00001b30       __imp_uv_queue_work        0000000180027b30     node:node.exe
 0003:00001b38       __imp_?ToObject@Value@v8@@QEBA?AV?$Local@VObject@v8@@@2@XZ 0000000180027b38     node:node.exe
 0003:00001b40       __imp_?ToString@Value@v8@@QEBA?AV?$Local@VString@v8@@@2@XZ 0000000180027b40     node:node.exe
 0003:00001b48       __imp_??1EscapableHandleScope@v8@@QEAA@XZ 0000000180027b48     node:node.exe
 0003:00001b50       __imp_?Length@Buffer@node@@YA_KV?$Local@VObject@v8@@@v8@@@Z 0000000180027b50     node:node.exe
 0003:00001b58       __imp_?Data@Buffer@node@@YAPEADV?$Local@VObject@v8@@@v8@@@Z 0000000180027b58     node:node.exe
 0003:00001b60       __imp_?HasInstance@Buffer@node@@YA_NV?$Local@VValue@v8@@@v8@@@Z 0000000180027b60     node:node.exe
 0003:00001b68       __imp_?ToInteger@Value@v8@@QEBA?AV?$MaybeLocal@VInteger@v8@@@2@V?$Local@VContext@v8@@@2@@Z 0000000180027b68     node:node.exe
 0003:00001b70       __imp_?New@Array@v8@@SA?AV?$Local@VArray@v8@@@2@PEAVIsolate@2@H@Z 0000000180027b70     node:node.exe
 0003:00001b78       __imp_?Set@Object@v8@@QEAA?AV?$Maybe@_N@2@V?$Local@VContext@v8@@@2@V?$Local@VValue@v8@@@2@1@Z 0000000180027b78     node:node.exe
 0003:00001b80       __imp_?Set@Object@v8@@QEAA?AV?$Maybe@_N@2@V?$Local@VContext@v8@@@2@IV?$Local@VValue@v8@@@2@@Z 0000000180027b80     node:node.exe
 0003:00001b88       \177node_NULL_THUNK_DATA_DLA 0000000180027b88     node:node.exe
 0003:00001ba0       __hmod__node_exe           0000000180027ba0     node:node.exe
 0003:00002130       _aenvptr                   0000000180028130     LIBCMT:dllcrt0.obj
 0003:00002138       _wenvptr                   0000000180028138     LIBCMT:dllcrt0.obj
 0003:00002140       __fastflag                 0000000180028140     LIBCMT:fpinit.obj
 0003:00002144       __favor                    0000000180028144     LIBCMT:cpu_disp.obj
 0003:00002148       _crtheap                   0000000180028148     LIBCMT:heapinit.obj
 0003:00002150       ?_pnhHeap@@3P6AH_K@ZEA     0000000180028150     LIBCMT:handler.obj
 0003:00002158       _C_Exit_Done               0000000180028158     LIBCMT:crt0dat.obj
 0003:0000215c       __argc                     000000018002815c     LIBCMT:crt0dat.obj
 0003:00002160       __argv                     0000000180028160     LIBCMT:crt0dat.obj
 0003:00002168       __wargv                    0000000180028168     LIBCMT:crt0dat.obj
 0003:00002170       _environ                   0000000180028170     LIBCMT:crt0dat.obj
 0003:00002178       _wenviron                  0000000180028178     LIBCMT:crt0dat.obj
 0003:00002180       _pgmptr                    0000000180028180     LIBCMT:crt0dat.obj
 0003:00002188       _wpgmptr                   0000000180028188     LIBCMT:crt0dat.obj
 0003:00002190       _umaskval                  0000000180028190     LIBCMT:crt0dat.obj
 0003:00002194       _exitflag                  0000000180028194     LIBCMT:crt0dat.obj
 0003:00002198       _C_Termination_Done        0000000180028198     LIBCMT:crt0dat.obj
 0003:000021a0       __winitenv                 00000001800281a0     LIBCMT:crt0dat.obj
 0003:000021a8       __initenv                  00000001800281a8     LIBCMT:crt0dat.obj
 0003:000021b0       __app_type                 00000001800281b0     LIBCMT:crt0msg.obj
 0003:000027e8       _newmode                   00000001800287e8     LIBCMT:_newmode.obj
 0003:000027f0       __pInvalidArgHandler       00000001800287f0     LIBCMT:invarg.obj
 0003:000027f8       __error_mode               00000001800287f8     LIBCMT:errmode.obj
 0003:000027fc       _cflush                    00000001800287fc     LIBCMT:_file.obj
 0003:00002850       _maxwait                   0000000180028850     LIBCMT:crtheap.obj
 0003:00002858       __pPurecall                0000000180028858     LIBCMT:inithelp.obj
 0003:00002860       __mbcodepage               0000000180028860     LIBCMT:mbctype.obj
 0003:00002864       __ismbcodepage             0000000180028864     LIBCMT:mbctype.obj
 0003:00002868       __mbulinfo                 0000000180028868     LIBCMT:mbctype.obj
 0003:00002878       __mblocalename             0000000180028878     LIBCMT:mbctype.obj
 0003:00002884       __locale_changed           0000000180028884     LIBCMT:wsetloca.obj
 0003:00002890       __pioinfo                  0000000180028890     LIBCMT:ioinit.obj
 0003:00002b98       ?g_OutOfMemoryExceptionCallback@@3P6APEAXXZEA 0000000180028b98     LIBCMT:frame.obj
 0003:00002ba0       ?__pInconsistency@@3P6AXXZEA 0000000180028ba0     LIBCMT:hooks.obj
 0003:00002df8       _stdbuf                    0000000180028df8     LIBCMT:_sftbuf.obj
 0003:00002e18       __lconv_static_null        0000000180028e18     LIBCMT:lconv.obj
 0003:00002e1c       __lconv_static_W_null      0000000180028e1c     LIBCMT:lconv.obj
 0003:00002e20       ?m_pGetParameter@UnDecorator@@0P6APEADJ@ZEA 0000000180028e20     LIBCMT:undname.obj
 0003:00002e28       ?pArgList@UnDecorator@@0PEAVReplicator@@EA 0000000180028e28     LIBCMT:undname.obj
 0003:00002e30       ?pZNameList@UnDecorator@@0PEAVReplicator@@EA 0000000180028e30     LIBCMT:undname.obj
 0003:00002e38       ?pTemplateArgList@UnDecorator@@0PEAVReplicator@@EA 0000000180028e38     LIBCMT:undname.obj
 0003:00002e40       ?gName@UnDecorator@@0PEBDEB 0000000180028e40     LIBCMT:undname.obj
 0003:00002e48       ?name@UnDecorator@@0PEBDEB 0000000180028e48     LIBCMT:undname.obj
 0003:00002e50       ?outputString@UnDecorator@@0PEADEA 0000000180028e50     LIBCMT:undname.obj
 0003:00002e58       ?maxStringLength@UnDecorator@@0HA 0000000180028e58     LIBCMT:undname.obj
 0003:00002e5c       ?disableFlags@UnDecorator@@0KA 0000000180028e5c     LIBCMT:undname.obj
 0003:00002e60       ?fExplicitTemplateParams@UnDecorator@@0_NA 0000000180028e60     LIBCMT:undname.obj
 0003:00002e61       ?fGetTemplateArgumentList@UnDecorator@@0_NA 0000000180028e61     LIBCMT:undname.obj
 0003:00002e90       _outputformat              0000000180028e90     LIBCMT:outputformat.obj
 0003:00002e98       __pfnDliFailureHook2       0000000180028e98     DelayImp:delayhk1.obj
 0003:00002ea0       ?id@?$num_put@_WV?$back_insert_iterator@V?$basic_string@_WU?$char_traits@_W@std@@V?$allocator@_W@2@@std@@@std@@@std@@2V0locale@2@A 0000000180028ea0     serialport.obj
 0003:00002ea8       ?_System_object@?$_Error_objects@H@std@@2V_System_error_category@2@A 0000000180028ea8     serialport.obj
 0003:00002eb0       ?id@?$numpunct@_W@std@@2V0locale@2@A 0000000180028eb0     serialport.obj
 0003:00002eb8       ?id@?$num_put@DV?$back_insert_iterator@V?$basic_string@DU?$char_traits@D@std@@V?$allocator@D@2@@std@@@std@@@std@@2V0locale@2@A 0000000180028eb8     serialport.obj
 0003:00002ec0       ?_Iostream_object@?$_Error_objects@H@std@@2V_Iostream_error_category@2@A 0000000180028ec0     serialport.obj
 0003:00002ee0       ?g_closingHandles@@3V?$list@HV?$allocator@H@std@@@std@@A 0000000180028ee0     serialport_win.obj
 0003:00002ef0       ?_Generic_object@?$_Error_objects@H@std@@2V_Generic_error_category@2@A 0000000180028ef0     serialport.obj
 0003:00002ef8       ?id@?$numpunct@D@std@@2V0locale@2@A 0000000180028ef8     serialport.obj
 0003:00002f00       _nhandle                   0000000180028f00     <common>
 0003:00002f20       encodedKERNEL32Functions   0000000180028f20     <common>
 0003:00003028       _debugger_hook_dummy       0000000180029028     <common>
 0003:00003030       __piob                     0000000180029030     <common>
 0003:00003038       _nstream                   0000000180029038     <common>
 0003:00003040       _bufin                     0000000180029040     <common>
 0003:00004040       __dyn_tls_init_callback    000000018002a040     <common>
 0003:00004048       __onexitend                000000018002a048     <common>
 0003:00004050       __onexitbegin              000000018002a050     <common>
 0003:00004058       __mbctype_initialized      000000018002a058     <common>
 0003:0000405c       __env_initialized          000000018002a05c     <common>
 0003:00004060       _acmdln                    000000018002a060     <common>

 entry point at        0001:00007e30

 Static symbols

 0000:fffd1000       .debug$S                   0000000180000000     node:node.exe
 0000:fffd1000       .debug$S                   0000000180000000     setupapi:SETUPAPI.dll
 0000:fffd1000       .debug$S                   0000000180000000     setupapi:SETUPAPI.dll
 0000:fffd1000       .debug$S                   0000000180000000     setupapi:SETUPAPI.dll
 0000:fffd1000       .debug$S                   0000000180000000     setupapi:SETUPAPI.dll
 0000:fffd1000       .debug$S                   0000000180000000     setupapi:SETUPAPI.dll
 0000:fffd1000       .debug$S                   0000000180000000     kernel32:KERNEL32.dll
 0000:fffd1000       .debug$S                   0000000180000000     kernel32:KERNEL32.dll
 0000:fffd1000       .debug$S                   0000000180000000     kernel32:KERNEL32.dll
 0000:fffd1000       .debug$S                   0000000180000000     kernel32:KERNEL32.dll
 0000:fffd1000       .debug$S                   0000000180000000     kernel32:KERNEL32.dll
 0000:fffd1000       .debug$S                   0000000180000000     kernel32:KERNEL32.dll
 0000:fffd1000       .debug$S                   0000000180000000     kernel32:KERNEL32.dll
 0000:fffd1000       .debug$S                   0000000180000000     kernel32:KERNEL32.dll
 0000:fffd1000       .debug$S                   0000000180000000     kernel32:KERNEL32.dll
 0000:fffd1000       .debug$S                   0000000180000000     kernel32:KERNEL32.dll
 0000:fffd1000       .debug$S                   0000000180000000     kernel32:KERNEL32.dll
 0000:fffd1000       .debug$S                   0000000180000000     kernel32:KERNEL32.dll
 0000:fffd1000       .debug$S                   0000000180000000     kernel32:KERNEL32.dll
 0000:fffd1000       .debug$S                   0000000180000000     kernel32:KERNEL32.dll
 0000:fffd1000       .debug$S                   0000000180000000     kernel32:KERNEL32.dll
 0000:fffd1000       .debug$S                   0000000180000000     kernel32:KERNEL32.dll
 0000:fffd1000       .debug$S                   0000000180000000     kernel32:KERNEL32.dll
 0000:fffd1000       .debug$S                   0000000180000000     kernel32:KERNEL32.dll
 0000:fffd1000       .debug$S                   0000000180000000     kernel32:KERNEL32.dll
 0000:fffd1000       .debug$S                   0000000180000000     kernel32:KERNEL32.dll
 0000:fffd1000       .debug$S                   0000000180000000     kernel32:KERNEL32.dll
 0000:fffd1000       .debug$S                   0000000180000000     kernel32:KERNEL32.dll
 0000:fffd1000       .debug$S                   0000000180000000     kernel32:KERNEL32.dll
 0000:fffd1000       .debug$S                   0000000180000000     kernel32:KERNEL32.dll
 0000:fffd1000       .debug$S                   0000000180000000     kernel32:KERNEL32.dll
 0000:fffd1000       .debug$S                   0000000180000000     kernel32:KERNEL32.dll
 0000:fffd1000       .debug$S                   0000000180000000     kernel32:KERNEL32.dll
 0000:fffd1000       .debug$S                   0000000180000000     kernel32:KERNEL32.dll
 0000:fffd1000       .debug$S                   0000000180000000     kernel32:KERNEL32.dll
 0000:fffd1000       .debug$S                   0000000180000000     kernel32:KERNEL32.dll
 0000:fffd1000       .debug$S                   0000000180000000     kernel32:KERNEL32.dll
 0000:fffd1000       .debug$S                   0000000180000000     kernel32:KERNEL32.dll
 0000:fffd1000       .debug$S                   0000000180000000     kernel32:KERNEL32.dll
 0000:fffd1000       .debug$S                   0000000180000000     kernel32:KERNEL32.dll
 0000:fffd1000       .debug$S                   0000000180000000     kernel32:KERNEL32.dll
 0000:fffd1000       .debug$S                   0000000180000000     kernel32:KERNEL32.dll
 0000:fffd1000       .debug$S                   0000000180000000     kernel32:KERNEL32.dll
 0000:fffd1000       .debug$S                   0000000180000000     kernel32:KERNEL32.dll
 0000:fffd1000       .debug$S                   0000000180000000     kernel32:KERNEL32.dll
 0000:fffd1000       .debug$S                   0000000180000000     kernel32:KERNEL32.dll
 0000:fffd1000       .debug$S                   0000000180000000     kernel32:KERNEL32.dll
 0000:fffd1000       .debug$S                   0000000180000000     kernel32:KERNEL32.dll
 0000:fffd1000       .debug$S                   0000000180000000     kernel32:KERNEL32.dll
 0000:fffd1000       .debug$S                   0000000180000000     kernel32:KERNEL32.dll
 0000:fffd1000       .debug$S                   0000000180000000     kernel32:KERNEL32.dll
 0000:fffd1000       .debug$S                   0000000180000000     kernel32:KERNEL32.dll
 0000:fffd1000       .debug$S                   0000000180000000     kernel32:KERNEL32.dll
 0000:fffd1000       .debug$S                   0000000180000000     kernel32:KERNEL32.dll
 0000:fffd1000       .debug$S                   0000000180000000     kernel32:KERNEL32.dll
 0000:fffd1000       .debug$S                   0000000180000000     kernel32:KERNEL32.dll
 0000:fffd1000       .debug$S                   0000000180000000     kernel32:KERNEL32.dll
 0000:fffd1000       .debug$S                   0000000180000000     kernel32:KERNEL32.dll
 0000:fffd1000       .debug$S                   0000000180000000     kernel32:KERNEL32.dll
 0000:fffd1000       .debug$S                   0000000180000000     kernel32:KERNEL32.dll
 0000:fffd1000       .debug$S                   0000000180000000     kernel32:KERNEL32.dll
 0000:fffd1000       .debug$S                   0000000180000000     kernel32:KERNEL32.dll
 0000:fffd1000       .debug$S                   0000000180000000     kernel32:KERNEL32.dll
 0000:fffd1000       .debug$S                   0000000180000000     kernel32:KERNEL32.dll
 0000:fffd1000       .debug$S                   0000000180000000     kernel32:KERNEL32.dll
 0000:fffd1000       .debug$S                   0000000180000000     kernel32:KERNEL32.dll
 0000:fffd1000       .debug$S                   0000000180000000     kernel32:KERNEL32.dll
 0000:fffd1000       .debug$S                   0000000180000000     kernel32:KERNEL32.dll
 0000:fffd1000       .debug$S                   0000000180000000     kernel32:KERNEL32.dll
 0000:fffd1000       .debug$S                   0000000180000000     kernel32:KERNEL32.dll
 0000:fffd1000       .debug$S                   0000000180000000     kernel32:KERNEL32.dll
 0000:fffd1000       .debug$S                   0000000180000000     kernel32:KERNEL32.dll
 0000:fffd1000       .debug$S                   0000000180000000     kernel32:KERNEL32.dll
 0000:fffd1000       .debug$S                   0000000180000000     kernel32:KERNEL32.dll
 0000:fffd1000       .debug$S                   0000000180000000     kernel32:KERNEL32.dll
 0000:fffd1000       .debug$S                   0000000180000000     kernel32:KERNEL32.dll
 0000:fffd1000       .debug$S                   0000000180000000     kernel32:KERNEL32.dll
 0000:fffd1000       .debug$S                   0000000180000000     kernel32:KERNEL32.dll
 0000:fffd1000       .debug$S                   0000000180000000     kernel32:KERNEL32.dll
 0000:fffd1000       .debug$S                   0000000180000000     kernel32:KERNEL32.dll
 0000:fffd1000       .debug$S                   0000000180000000     kernel32:KERNEL32.dll
 0000:fffd1000       .debug$S                   0000000180000000     kernel32:KERNEL32.dll
 0000:fffd1000       .debug$S                   0000000180000000     kernel32:KERNEL32.dll
 0000:fffd1000       .debug$S                   0000000180000000     kernel32:KERNEL32.dll
 0000:fffd1000       .debug$S                   0000000180000000     kernel32:KERNEL32.dll
 0000:fffd1000       .debug$S                   0000000180000000     kernel32:KERNEL32.dll
 0000:fffd1000       .debug$S                   0000000180000000     kernel32:KERNEL32.dll
 0000:fffd1000       .debug$S                   0000000180000000     kernel32:KERNEL32.dll
 0000:fffd1000       .debug$S                   0000000180000000     kernel32:KERNEL32.dll
 0000:fffd1000       .debug$S                   0000000180000000     kernel32:KERNEL32.dll
 0000:fffd1000       .debug$S                   0000000180000000     kernel32:KERNEL32.dll
 0000:fffd1000       .debug$S                   0000000180000000     kernel32:KERNEL32.dll
 0000:fffd1000       .debug$S                   0000000180000000     kernel32:KERNEL32.dll
 0000:fffd1000       .debug$S                   0000000180000000     kernel32:KERNEL32.dll
 0000:fffd1000       .debug$S                   0000000180000000     kernel32:KERNEL32.dll
 0000:fffd1000       .debug$S                   0000000180000000     kernel32:KERNEL32.dll
 0000:fffd1000       .debug$S                   0000000180000000     kernel32:KERNEL32.dll
 0000:fffd1000       .debug$S                   0000000180000000     kernel32:KERNEL32.dll
 0000:fffd1000       .debug$S                   0000000180000000     kernel32:KERNEL32.dll
 0000:fffd1000       .debug$S                   0000000180000000     kernel32:KERNEL32.dll
 0000:fffd1000       .debug$S                   0000000180000000     kernel32:KERNEL32.dll
 0000:fffd1000       .debug$S                   0000000180000000     advapi32:ADVAPI32.dll
 0000:fffd1000       .debug$S                   0000000180000000     advapi32:ADVAPI32.dll
 0000:fffd1000       .debug$S                   0000000180000000     node:node.exe
 0000:fffd1000       .debug$S                   0000000180000000     node:node.exe
 0000:fffd1000       .debug$S                   0000000180000000     node:node.exe
 0000:fffd1000       .debug$S                   0000000180000000     node:node.exe
 0000:fffd1000       .debug$S                   0000000180000000     node:node.exe
 0000:fffd1000       .debug$S                   0000000180000000     node:node.exe
 0000:fffd1000       .debug$S                   0000000180000000     node:node.exe
 0000:fffd1000       .debug$S                   0000000180000000     node:node.exe
 0000:fffd1000       .debug$S                   0000000180000000     node:node.exe
 0000:fffd1000       .debug$S                   0000000180000000     node:node.exe
 0000:fffd1000       .debug$S                   0000000180000000     node:node.exe
 0000:fffd1000       .debug$S                   0000000180000000     node:node.exe
 0000:fffd1000       .debug$S                   0000000180000000     node:node.exe
 0000:fffd1000       .debug$S                   0000000180000000     node:node.exe
 0000:fffd1000       .debug$S                   0000000180000000     node:node.exe
 0000:fffd1000       .debug$S                   0000000180000000     node:node.exe
 0000:fffd1000       .debug$S                   0000000180000000     node:node.exe
 0000:fffd1000       .debug$S                   0000000180000000     node:node.exe
 0000:fffd1000       .debug$S                   0000000180000000     node:node.exe
 0000:fffd1000       .debug$S                   0000000180000000     node:node.exe
 0000:fffd1000       .debug$S                   0000000180000000     node:node.exe
 0000:fffd1000       .debug$S                   0000000180000000     node:node.exe
 0000:fffd1000       .debug$S                   0000000180000000     node:node.exe
 0000:fffd1000       .debug$S                   0000000180000000     node:node.exe
 0000:fffd1000       .debug$S                   0000000180000000     node:node.exe
 0000:fffd1000       .debug$S                   0000000180000000     node:node.exe
 0000:fffd1000       .debug$S                   0000000180000000     node:node.exe
 0000:fffd1000       .debug$S                   0000000180000000     node:node.exe
 0000:fffd1000       .debug$S                   0000000180000000     node:node.exe
 0000:fffd1000       .debug$S                   0000000180000000     node:node.exe
 0000:fffd1000       .debug$S                   0000000180000000     node:node.exe
 0000:fffd1000       .debug$S                   0000000180000000     node:node.exe
 0000:fffd1000       .debug$S                   0000000180000000     node:node.exe
 0000:fffd1000       .debug$S                   0000000180000000     node:node.exe
 0000:fffd1000       .debug$S                   0000000180000000     node:node.exe
 0000:fffd1000       .debug$S                   0000000180000000     node:node.exe
 0000:fffd1000       .debug$S                   0000000180000000     node:node.exe
 0000:fffd1000       .debug$S                   0000000180000000     node:node.exe
 0000:fffd1000       .debug$S                   0000000180000000     node:node.exe
 0000:fffd1000       .debug$S                   0000000180000000     node:node.exe
 0000:fffd1000       .debug$S                   0000000180000000     node:node.exe
 0000:fffd1000       .debug$S                   0000000180000000     node:node.exe
 0000:fffd1000       .debug$S                   0000000180000000     node:node.exe
 0000:fffd1000       .debug$S                   0000000180000000     node:node.exe
 0000:fffd1000       .debug$S                   0000000180000000     node:node.exe
 0000:fffd1000       .debug$S                   0000000180000000     node:node.exe
 0000:fffd1000       .debug$S                   0000000180000000     node:node.exe
 0000:fffd1000       .debug$S                   0000000180000000     node:node.exe
 0000:fffd1000       .debug$S                   0000000180000000     node:node.exe
 0000:fffd1000       .debug$S                   0000000180000000     node:node.exe
 0000:fffd1000       .debug$S                   0000000180000000     node:node.exe
 0000:fffd1000       .debug$S                   0000000180000000     node:node.exe
 0000:fffd1000       .debug$S                   0000000180000000     node:node.exe
 0000:fffd1000       .debug$S                   0000000180000000     node:node.exe
 0000:fffd1000       .debug$S                   0000000180000000     node:node.exe
 0000:fffd1000       .debug$S                   0000000180000000     node:node.exe
 0000:fffd1000       .debug$S                   0000000180000000     node:node.exe
 0000:fffd1000       .debug$S                   0000000180000000     node:node.exe
 0000:fffd1000       .debug$S                   0000000180000000     node:node.exe
 0000:fffd1000       .debug$S                   0000000180000000     node:node.exe
 0000:fffd1000       .debug$S                   0000000180000000     node:node.exe
 0000:fffd1000       .debug$S                   0000000180000000     node:node.exe
 0000:fffd1000       .debug$S                   0000000180000000     node:node.exe
 0000:fffd1000       .debug$S                   0000000180000000     node:node.exe
 0000:fffd1000       .debug$S                   0000000180000000     node:node.exe
 0000:fffd1000       .debug$S                   0000000180000000     node:node.exe
 0000:fffd1000       .debug$S                   0000000180000000     node:node.exe
 0000:fffd1000       .debug$S                   0000000180000000     setupapi:SETUPAPI.dll
 0001:00000000       ??__Epiecewise_construct@std@@YAXXZ 0000000180001000 f   serialport.obj
 0001:00000010       ??__Eallocator_arg@std@@YAXXZ 0000000180001010 f   serialport.obj
 0001:00000020       ??__Epiecewise_construct@std@@YAXXZ 0000000180001020 f   serialport_win.obj
 0001:00000030       ??__Eallocator_arg@std@@YAXXZ 0000000180001030 f   serialport_win.obj
 0001:00000040       ??__Eg_closingHandles@@YAXXZ 0000000180001040 f   serialport_win.obj
 0001:000000e0       ?FunctionCallbackWrapper@imp@Nan@@YAXAEBV?$FunctionCallbackInfo@VValue@v8@@@v8@@@Z 00000001800010e0 f   serialport.obj
 0001:000030c0       _register_serialport       00000001800040c0 f   serialport.obj
 0001:00005da0       ?load_exe_hook@@YAP6A_JXZIPEAUDelayLoadInfo@@@Z 0000000180006da0 f   win_delay_load_hook.obj
 0001:00006300       $$000000                   0000000180007300     LIBCMT:amdsecgs.obj
 0001:00006330       $$000000                   0000000180007330     LIBCMT:memcpy.obj
 0001:00006420       MoveSmall                  0000000180007420     LIBCMT:memcpy.obj
 0001:000072e0       swprintf                   00000001800082e0 f   LIBCMT:wassert.obj
 0001:000076f0       $$000000                   00000001800086f0     LIBCMT:strncpy.obj
 0001:00007e70       __DllMainCRTStartup        0000000180008e70 f   LIBCMT:dllcrt0.obj
 0001:00007f90       $$000000                   0000000180008f90     LIBCMT:strlen.obj
 0001:00008fc4       _initterm                  0000000180009fc4 f   LIBCMT:crt0dat.obj
 0001:00009078       doexit                     000000018000a078 f   LIBCMT:crt0dat.obj
 0001:000099f4       xtow_s                     000000018000a9f4 f   LIBCMT:xtows.obj
 0001:00009df8       flsall                     000000018000adf8 f   LIBCMT:fflush.obj
 0001:0000aea0       $$000000                   000000018000bea0     LIBCMT:memset.obj
 0001:0000b045       MsetTab                    000000018000c045     LIBCMT:memset.obj
 0001:0000bac0       ?getSystemCP@@YAHH@Z       000000018000cac0 f   LIBCMT:mbctype.obj
 0001:0000bb40       ?setSBCS@@YAXPEAUthreadmbcinfostruct@@@Z 000000018000cb40 f   LIBCMT:mbctype.obj
 0001:0000bbd0       ?setSBUpLow@@YAXPEAUthreadmbcinfostruct@@@Z 000000018000cbd0 f   LIBCMT:mbctype.obj
 0001:0000cf18       parse_cmdline              000000018000df18 f   LIBCMT:stdargv.obj
 0001:0000d50c       ?CatchIt@@YAXPEAUEHExceptionRecord@@PEA_KPEAU_CONTEXT@@PEAU_xDISPATCHER_CONTEXT@@PEBU_s_FuncInfo@@PEBU_s_HandlerType@@PEBU_s_CatchableType@@PEBU_s_TryBlockMapEntry@@H1EE@Z 000000018000e50c f   LIBCMT:frame.obj
 0001:0000d5d0       ?FindHandler@@YAXPEAUEHExceptionRecord@@PEA_KPEAU_CONTEXT@@PEAU_xDISPATCHER_CONTEXT@@PEBU_s_FuncInfo@@EH1@Z 000000018000e5d0 f   LIBCMT:frame.obj
 0001:0000da84       ?FindHandlerForForeignException@@YAXPEAUEHExceptionRecord@@PEA_KPEAU_CONTEXT@@PEAU_xDISPATCHER_CONTEXT@@PEBU_s_FuncInfo@@HH1@Z 000000018000ea84 f   LIBCMT:frame.obj
 0001:0000dcec       ?IsInExceptionSpec@@YAEPEAUEHExceptionRecord@@PEBU_s_ESTypeList@@@Z 000000018000ecec f   LIBCMT:frame.obj
 0001:0000e9c0       $$000000                   000000018000f9c0     LIBCMT:strcmp.obj
 0001:0000eef8       _cftoe2_l                  000000018000fef8 f   LIBCMT:cvt.obj
 0001:0000f1ec       _cftof2_l                  00000001800101ec f   LIBCMT:cvt.obj
 0001:0001118c       write_char                 000000018001218c f   LIBCMT:woutput.obj
 0001:000111c4       write_multi_char           00000001800121c4 f   LIBCMT:woutput.obj
 0001:00011218       write_string               0000000180012218 f   LIBCMT:woutput.obj
 0001:00011430       $$000000                   0000000180012430     LIBCMT:jmpuwind.obj
 0001:00011650       $$000000                   0000000180012650     LIBCMT:fpsr.obj
 0001:00012308       write_char                 0000000180013308 f   LIBCMT:outputs.obj
 0001:00012350       write_multi_char           0000000180013350 f   LIBCMT:outputs.obj
 0001:000123a4       write_string               00000001800133a4 f   LIBCMT:outputs.obj
 0001:00012bf0       ?__crtLCMapStringA_stat@@YAHPEAUlocaleinfo_struct@@PEB_WKPEBDHPEADHHH@Z 0000000180013bf0 f   LIBCMT:a_map.obj
 0001:00012f74       ?__crtGetStringTypeA_stat@@YAHPEAUlocaleinfo_struct@@KPEBDHPEAGHH@Z 0000000180013f74 f   LIBCMT:a_str.obj
 0001:00013250       $$000000                   0000000180014250     LIBCMT:memcmp.obj
 0001:00013328       ?x_ismbbtype_l@@YAHPEAUlocaleinfo_struct@@IHH@Z 0000000180014328 f   LIBCMT:ismbbyte.obj
 0001:000133d0       $$000000                   00000001800143d0     LIBCMT:handlers.obj
 0001:00013e70       $$000000                   0000000180014e70     LIBCMT:chkstk.obj
 0001:00016a20       ?dtor$0@?0??NewInstance@Nan@@YA?AV?$MaybeLocal@VObject@v8@@@v8@@V?$Local@VObjectTemplate@v8@@@3@@Z@4HA 0000000180017a20 f   serialport.obj
 0001:00016a20       ?dtor$0@?0??convert@?$ToFactory@VBoolean@v8@@@imp@Nan@@SA?AV?$MaybeLocal@VBoolean@v8@@@v8@@V?$Local@VValue@v8@@@5@@Z@4HA 0000000180017a20 f   serialport.obj
 0001:00016a20       ?dtor$0@?0??GetFunction@Nan@@YA?AV?$MaybeLocal@VFunction@v8@@@v8@@V?$Local@VFunctionTemplate@v8@@@3@@Z@4HA 0000000180017a20 f   serialport.obj
 0001:00016a20       ?dtor$0@?0??convert@?$ToFactory@VString@v8@@@imp@Nan@@SA?AV?$MaybeLocal@VString@v8@@@v8@@V?$Local@VValue@v8@@@5@@Z@4HA 0000000180017a20 f   serialport.obj
 0001:00016a20       ?dtor$0@?0??convert@?$ToFactory@VInt32@v8@@@imp@Nan@@SA?AV?$MaybeLocal@VInt32@v8@@@v8@@V?$Local@VValue@v8@@@5@@Z@4HA 0000000180017a20 f   serialport.obj
 0001:00016a20       ?dtor$0@?0??convert@?$ToFactory@VInteger@v8@@@imp@Nan@@SA?AV?$MaybeLocal@VInteger@v8@@@v8@@V?$Local@VValue@v8@@@5@@Z@4HA 0000000180017a20 f   serialport_win.obj
 0001:00016a2e       ?dtor$1@?0??convert@?$ToFactory@VInt32@v8@@@imp@Nan@@SA?AV?$MaybeLocal@VInt32@v8@@@v8@@V?$Local@VValue@v8@@@5@@Z@4HA 0000000180017a2e f   serialport.obj
 0001:00016a2e       ?dtor$1@?0??convert@?$ToFactory@VString@v8@@@imp@Nan@@SA?AV?$MaybeLocal@VString@v8@@@v8@@V?$Local@VValue@v8@@@5@@Z@4HA 0000000180017a2e f   serialport.obj
 0001:00016a2e       ?dtor$1@?0??convert@?$ToFactory@VBoolean@v8@@@imp@Nan@@SA?AV?$MaybeLocal@VBoolean@v8@@@v8@@V?$Local@VValue@v8@@@5@@Z@4HA 0000000180017a2e f   serialport.obj
 0001:00016a2e       ?dtor$1@?0??convert@?$ToFactory@VInteger@v8@@@imp@Nan@@SA?AV?$MaybeLocal@VInteger@v8@@@v8@@V?$Local@VValue@v8@@@5@@Z@4HA 0000000180017a2e f   serialport_win.obj
 0001:00016a2e       ?dtor$1@?0??NewInstance@Nan@@YA?AV?$MaybeLocal@VObject@v8@@@v8@@V?$Local@VObjectTemplate@v8@@@3@@Z@4HA 0000000180017a2e f   serialport.obj
 0001:00016a2e       ?dtor$1@?0??GetFunction@Nan@@YA?AV?$MaybeLocal@VFunction@v8@@@v8@@V?$Local@VFunctionTemplate@v8@@@3@@Z@4HA 0000000180017a2e f   serialport.obj
 0001:00016a40       ?dtor$0@?0??Get@Nan@@YA?AV?$MaybeLocal@VValue@v8@@@v8@@V?$Local@VObject@v8@@@3@V?$Local@VValue@v8@@@3@@Z@4HA 0000000180017a40 f   serialport.obj
 0001:00016a4e       ?dtor$1@?0??Get@Nan@@YA?AV?$MaybeLocal@VValue@v8@@@v8@@V?$Local@VObject@v8@@@3@V?$Local@VValue@v8@@@3@@Z@4HA 0000000180017a4e f   serialport.obj
 0001:00016a60       ?dtor$0@?0??convert@?$ToFactory@H@imp@Nan@@SA?AV?$Maybe@H@v8@@V?$Local@VValue@v8@@@5@@Z@4HA 0000000180017a60 f   serialport.obj
 0001:00016a60       ?dtor$0@?0??convert@?$ToFactory@N@imp@Nan@@SA?AV?$Maybe@N@v8@@V?$Local@VValue@v8@@@5@@Z@4HA 0000000180017a60 f   serialport.obj
 0001:00016a60       ?dtor$0@?0??Has@Nan@@YA?AV?$Maybe@_N@v8@@V?$Local@VObject@v8@@@3@V?$Local@VString@v8@@@3@@Z@4HA 0000000180017a60 f   serialport.obj
 0001:00016a70       ?dtor$0@?0??New@?$Factory@VFunctionTemplate@v8@@@imp@Nan@@SA?AV?$Local@VFunctionTemplate@v8@@@v8@@P6AXAEBV?$FunctionCallbackInfo@VValue@v8@@@3@@ZV?$Local@VValue@v8@@@5@V?$Local@VSignature@v8@@@5@@Z@4HA 0000000180017a70 f   serialport.obj
 0001:00016a7e       ?dtor$2@?0??New@?$Factory@VFunctionTemplate@v8@@@imp@Nan@@SA?AV?$Local@VFunctionTemplate@v8@@@v8@@P6AXAEBV?$FunctionCallbackInfo@VValue@v8@@@3@@ZV?$Local@VValue@v8@@@5@V?$Local@VSignature@v8@@@5@@Z@4HA 0000000180017a7e f   serialport.obj
 0001:00016a90       ?dtor$0@?0???1EscapableHandleScope@Nan@@QEAA@XZ@4HA 0000000180017a90 f   serialport.obj
 0001:00016a9e       ?dtor$1@?0???1EscapableHandleScope@Nan@@QEAA@XZ@4HA 0000000180017a9e f   serialport.obj
 0001:00016ab0       ?dtor$0@?0???1HandleScope@Nan@@QEAA@XZ@4HA 0000000180017ab0 f   serialport.obj
 0001:00016ac0       ?dtor$1@?0??ThrowTypeError@Nan@@YAXPEBD@Z@4HA 0000000180017ac0 f   serialport.obj
 0001:00016ac0       ?dtor$1@?0???0Utf8String@Nan@@QEAA@V?$Local@VValue@v8@@@v8@@@Z@4HA 0000000180017ac0 f   serialport.obj
 0001:00016ace       ?dtor$0@?0??ThrowTypeError@Nan@@YAXPEBD@Z@4HA 0000000180017ace f   serialport.obj
 0001:00016ace       ?dtor$0@?0???0Utf8String@Nan@@QEAA@V?$Local@VValue@v8@@@v8@@@Z@4HA 0000000180017ace f   serialport.obj
 0001:00016ada       ?dtor$2@?0??ThrowTypeError@Nan@@YAXPEBD@Z@4HA 0000000180017ada f   serialport.obj
 0001:00016ada       ?dtor$2@?0???0Utf8String@Nan@@QEAA@V?$Local@VValue@v8@@@v8@@@Z@4HA 0000000180017ada f   serialport.obj
 0001:00016af0       ?dtor$0@?0???1Callback@Nan@@QEAA@XZ@4HA 0000000180017af0 f   serialport.obj
 0001:00016afc       ?dtor$1@?0???1Callback@Nan@@QEAA@XZ@4HA 0000000180017afc f   serialport.obj
 0001:00016b10       ?dtor$0@?0??Call@Callback@Nan@@QEBA?AV?$Local@VValue@v8@@@v8@@HQEAV34@@Z@4HA 0000000180017b10 f   serialport.obj
 0001:00016b1e       ?dtor$2@?0??Call@Callback@Nan@@QEBA?AV?$Local@VValue@v8@@@v8@@HQEAV34@@Z@4HA 0000000180017b1e f   serialport.obj
 0001:00016b30       ?dtor$1@?0??Error@Nan@@YA?AV?$Local@VValue@v8@@@v8@@PEBD@Z@4HA 0000000180017b30 f   serialport_win.obj
 0001:00016b30       ?dtor$1@?0??Call_@Callback@Nan@@AEBA?AV?$Local@VValue@v8@@@v8@@PEAVIsolate@4@V?$Local@VObject@v8@@@4@HQEAV34@@Z@4HA 0000000180017b30 f   serialport.obj
 0001:00016b3e       ?dtor$0@?0??Call_@Callback@Nan@@AEBA?AV?$Local@VValue@v8@@@v8@@PEAVIsolate@4@V?$Local@VObject@v8@@@4@HQEAV34@@Z@4HA 0000000180017b3e f   serialport.obj
 0001:00016b3e       ?dtor$0@?0??Error@Nan@@YA?AV?$Local@VValue@v8@@@v8@@PEBD@Z@4HA 0000000180017b3e f   serialport_win.obj
 0001:00016b4a       ?dtor$2@?0??Call_@Callback@Nan@@AEBA?AV?$Local@VValue@v8@@@v8@@PEAVIsolate@4@V?$Local@VObject@v8@@@4@HQEAV34@@Z@4HA 0000000180017b4a f   serialport.obj
 0001:00016b4a       ?dtor$2@?0??Error@Nan@@YA?AV?$Local@VValue@v8@@@v8@@PEBD@Z@4HA 0000000180017b4a f   serialport_win.obj
 0001:00016b58       ?dtor$3@?0??Error@Nan@@YA?AV?$Local@VValue@v8@@@v8@@PEBD@Z@4HA 0000000180017b58 f   serialport_win.obj
 0001:00016b58       ?dtor$3@?0??Call_@Callback@Nan@@AEBA?AV?$Local@VValue@v8@@@v8@@PEAVIsolate@4@V?$Local@VObject@v8@@@4@HQEAV34@@Z@4HA 0000000180017b58 f   serialport.obj
 0001:00016b70       ?dtor$0@?0???1?$Persistent@VObject@v8@@V?$NonCopyablePersistentTraits@VObject@v8@@@2@@Nan@@QEAA@XZ@4HA 0000000180017b70 f   serialport_win.obj
 0001:00016b70       ?dtor$0@?0???1?$Persistent@VFunction@v8@@V?$NonCopyablePersistentTraits@VFunction@v8@@@2@@Nan@@QEAA@XZ@4HA 0000000180017b70 f   serialport.obj
 0001:00016b80       ?dtor$0@?0??getValueFromObject@@YA?AV?$Local@VValue@v8@@@v8@@V?$Local@VObject@v8@@@2@V?$basic_string@DU?$char_traits@D@std@@V?$allocator@D@2@@std@@@Z@4HA 0000000180017b80 f   serialport.obj
 0001:00016b8c       ?dtor$1@?0??getValueFromObject@@YA?AV?$Local@VValue@v8@@@v8@@V?$Local@VObject@v8@@@2@V?$basic_string@DU?$char_traits@D@std@@V?$allocator@D@2@@std@@@Z@4HA 0000000180017b8c f   serialport.obj
 0001:00016ba0       ?dtor$0@?0??getIntFromObject@@YAHV?$Local@VObject@v8@@@v8@@V?$basic_string@DU?$char_traits@D@std@@V?$allocator@D@2@@std@@@Z@4HA 0000000180017ba0 f   serialport.obj
 0001:00016ba0       ?dtor$0@?0??getBoolFromObject@@YA_NV?$Local@VObject@v8@@@v8@@V?$basic_string@DU?$char_traits@D@std@@V?$allocator@D@2@@std@@@Z@4HA 0000000180017ba0 f   serialport.obj
 0001:00016ba0       ?dtor$0@?0??getStringFromObj@@YA?AV?$Local@VString@v8@@@v8@@V?$Local@VObject@v8@@@2@V?$basic_string@DU?$char_traits@D@std@@V?$allocator@D@2@@std@@@Z@4HA 0000000180017ba0 f   serialport.obj
 0001:00016bac       ?dtor$1@?0??getIntFromObject@@YAHV?$Local@VObject@v8@@@v8@@V?$basic_string@DU?$char_traits@D@std@@V?$allocator@D@2@@std@@@Z@4HA 0000000180017bac f   serialport.obj
 0001:00016bac       ?dtor$1@?0??getBoolFromObject@@YA_NV?$Local@VObject@v8@@@v8@@V?$basic_string@DU?$char_traits@D@std@@V?$allocator@D@2@@std@@@Z@4HA 0000000180017bac f   serialport.obj
 0001:00016bac       ?dtor$1@?0??getStringFromObj@@YA?AV?$Local@VString@v8@@@v8@@V?$Local@VObject@v8@@@2@V?$basic_string@DU?$char_traits@D@std@@V?$allocator@D@2@@std@@@Z@4HA 0000000180017bac f   serialport.obj
 0001:00016bc0       ?dtor$0@?0??getDoubleFromObject@@YANV?$Local@VObject@v8@@@v8@@V?$basic_string@DU?$char_traits@D@std@@V?$allocator@D@2@@std@@@Z@4HA 0000000180017bc0 f   serialport.obj
 0001:00016bcc       ?dtor$1@?0??getDoubleFromObject@@YANV?$Local@VObject@v8@@@v8@@V?$basic_string@DU?$char_traits@D@std@@V?$allocator@D@2@@std@@@Z@4HA 0000000180017bcc f   serialport.obj
 0001:00016be0       ?dtor$0@?0??Open@@YAXAEBV?$FunctionCallbackInfo@VValue@v8@@@Nan@@@Z@4HA 0000000180017be0 f   serialport.obj
 0001:00016bee       ?dtor$1@?0??Open@@YAXAEBV?$FunctionCallbackInfo@VValue@v8@@@Nan@@@Z@4HA 0000000180017bee f   serialport.obj
 0001:00016bfa       ?dtor$14@?0??Open@@YAXAEBV?$FunctionCallbackInfo@VValue@v8@@@Nan@@@Z@4HA 0000000180017bfa f   serialport.obj
 0001:00016c06       ?dtor$13@?0??Open@@YAXAEBV?$FunctionCallbackInfo@VValue@v8@@@Nan@@@Z@4HA 0000000180017c06 f   serialport.obj
 0001:00016c12       ?dtor$12@?0??Open@@YAXAEBV?$FunctionCallbackInfo@VValue@v8@@@Nan@@@Z@4HA 0000000180017c12 f   serialport.obj
 0001:00016c25       ?dtor$2@?0??Open@@YAXAEBV?$FunctionCallbackInfo@VValue@v8@@@Nan@@@Z@4HA 0000000180017c25 f   serialport.obj
 0001:00016c31       ?dtor$3@?0??Open@@YAXAEBV?$FunctionCallbackInfo@VValue@v8@@@Nan@@@Z@4HA 0000000180017c31 f   serialport.obj
 0001:00016c3d       ?dtor$4@?0??Open@@YAXAEBV?$FunctionCallbackInfo@VValue@v8@@@Nan@@@Z@4HA 0000000180017c3d f   serialport.obj
 0001:00016c49       ?dtor$5@?0??Open@@YAXAEBV?$FunctionCallbackInfo@VValue@v8@@@Nan@@@Z@4HA 0000000180017c49 f   serialport.obj
 0001:00016c55       ?dtor$6@?0??Open@@YAXAEBV?$FunctionCallbackInfo@VValue@v8@@@Nan@@@Z@4HA 0000000180017c55 f   serialport.obj
 0001:00016c61       ?dtor$7@?0??Open@@YAXAEBV?$FunctionCallbackInfo@VValue@v8@@@Nan@@@Z@4HA 0000000180017c61 f   serialport.obj
 0001:00016c6d       ?dtor$8@?0??Open@@YAXAEBV?$FunctionCallbackInfo@VValue@v8@@@Nan@@@Z@4HA 0000000180017c6d f   serialport.obj
 0001:00016c79       ?dtor$9@?0??Open@@YAXAEBV?$FunctionCallbackInfo@VValue@v8@@@Nan@@@Z@4HA 0000000180017c79 f   serialport.obj
 0001:00016c85       ?dtor$10@?0??Open@@YAXAEBV?$FunctionCallbackInfo@VValue@v8@@@Nan@@@Z@4HA 0000000180017c85 f   serialport.obj
 0001:00016c91       ?dtor$11@?0??Open@@YAXAEBV?$FunctionCallbackInfo@VValue@v8@@@Nan@@@Z@4HA 0000000180017c91 f   serialport.obj
 0001:00016ca0       ?dtor$1@?0??EIO_AfterOpen@@YAXPEAUuv_work_s@@@Z@4HA 0000000180017ca0 f   serialport.obj
 0001:00016cae       ?dtor$0@?0??EIO_AfterOpen@@YAXPEAUuv_work_s@@@Z@4HA 0000000180017cae f   serialport.obj
 0001:00016cba       ?dtor$4@?0??EIO_AfterOpen@@YAXPEAUuv_work_s@@@Z@4HA 0000000180017cba f   serialport.obj
 0001:00016ccd       ?dtor$5@?0??EIO_AfterOpen@@YAXPEAUuv_work_s@@@Z@4HA 0000000180017ccd f   serialport.obj
 0001:00016cd9       ?dtor$6@?0??EIO_AfterOpen@@YAXPEAUuv_work_s@@@Z@4HA 0000000180017cd9 f   serialport.obj
 0001:00016ce5       ?dtor$7@?0??EIO_AfterOpen@@YAXPEAUuv_work_s@@@Z@4HA 0000000180017ce5 f   serialport.obj
 0001:00016d00       ?dtor$0@?0??Update@@YAXAEBV?$FunctionCallbackInfo@VValue@v8@@@Nan@@@Z@4HA 0000000180017d00 f   serialport.obj
 0001:00016d0c       ?dtor$6@?0??Update@@YAXAEBV?$FunctionCallbackInfo@VValue@v8@@@Nan@@@Z@4HA 0000000180017d0c f   serialport.obj
 0001:00016d18       ?dtor$5@?0??Update@@YAXAEBV?$FunctionCallbackInfo@VValue@v8@@@Nan@@@Z@4HA 0000000180017d18 f   serialport.obj
 0001:00016d24       ?dtor$4@?0??Update@@YAXAEBV?$FunctionCallbackInfo@VValue@v8@@@Nan@@@Z@4HA 0000000180017d24 f   serialport.obj
 0001:00016d37       ?dtor$1@?0??Update@@YAXAEBV?$FunctionCallbackInfo@VValue@v8@@@Nan@@@Z@4HA 0000000180017d37 f   serialport.obj
 0001:00016d50       ?dtor$1@?0??EIO_AfterUpdate@@YAXPEAUuv_work_s@@@Z@4HA 0000000180017d50 f   serialport.obj
 0001:00016d5e       ?dtor$0@?0??EIO_AfterUpdate@@YAXPEAUuv_work_s@@@Z@4HA 0000000180017d5e f   serialport.obj
 0001:00016d6a       ?dtor$3@?0??EIO_AfterUpdate@@YAXPEAUuv_work_s@@@Z@4HA 0000000180017d6a f   serialport.obj
 0001:00016d7d       ?dtor$4@?0??EIO_AfterUpdate@@YAXPEAUuv_work_s@@@Z@4HA 0000000180017d7d f   serialport.obj
 0001:00016d89       ?dtor$5@?0??EIO_AfterUpdate@@YAXPEAUuv_work_s@@@Z@4HA 0000000180017d89 f   serialport.obj
 0001:00016d95       ?dtor$6@?0??EIO_AfterUpdate@@YAXPEAUuv_work_s@@@Z@4HA 0000000180017d95 f   serialport.obj
 0001:00016db0       ?dtor$0@?0??Close@@YAXAEBV?$FunctionCallbackInfo@VValue@v8@@@Nan@@@Z@4HA 0000000180017db0 f   serialport.obj
 0001:00016dbc       ?dtor$3@?0??Close@@YAXAEBV?$FunctionCallbackInfo@VValue@v8@@@Nan@@@Z@4HA 0000000180017dbc f   serialport.obj
 0001:00016dc8       ?dtor$2@?0??Close@@YAXAEBV?$FunctionCallbackInfo@VValue@v8@@@Nan@@@Z@4HA 0000000180017dc8 f   serialport.obj
 0001:00016dd4       ?dtor$1@?0??Close@@YAXAEBV?$FunctionCallbackInfo@VValue@v8@@@Nan@@@Z@4HA 0000000180017dd4 f   serialport.obj
 0001:00016df0       ?dtor$1@?0??EIO_AfterSet@@YAXPEAUuv_work_s@@@Z@4HA 0000000180017df0 f   serialport.obj
 0001:00016df0       ?dtor$1@?0??EIO_AfterDrain@@YAXPEAUuv_work_s@@@Z@4HA 0000000180017df0 f   serialport.obj
 0001:00016df0       ?dtor$1@?0??EIO_AfterClose@@YAXPEAUuv_work_s@@@Z@4HA 0000000180017df0 f   serialport.obj
 0001:00016df0       ?dtor$1@?0??EIO_AfterFlush@@YAXPEAUuv_work_s@@@Z@4HA 0000000180017df0 f   serialport.obj
 0001:00016dfe       ?dtor$0@?0??EIO_AfterSet@@YAXPEAUuv_work_s@@@Z@4HA 0000000180017dfe f   serialport.obj
 0001:00016dfe       ?dtor$0@?0??EIO_AfterFlush@@YAXPEAUuv_work_s@@@Z@4HA 0000000180017dfe f   serialport.obj
 0001:00016dfe       ?dtor$0@?0??EIO_AfterClose@@YAXPEAUuv_work_s@@@Z@4HA 0000000180017dfe f   serialport.obj
 0001:00016dfe       ?dtor$0@?0??EIO_AfterDrain@@YAXPEAUuv_work_s@@@Z@4HA 0000000180017dfe f   serialport.obj
 0001:00016e0a       ?dtor$3@?0??EIO_AfterSet@@YAXPEAUuv_work_s@@@Z@4HA 0000000180017e0a f   serialport.obj
 0001:00016e0a       ?dtor$3@?0??EIO_AfterDrain@@YAXPEAUuv_work_s@@@Z@4HA 0000000180017e0a f   serialport.obj
 0001:00016e0a       ?dtor$3@?0??EIO_AfterFlush@@YAXPEAUuv_work_s@@@Z@4HA 0000000180017e0a f   serialport.obj
 0001:00016e0a       ?dtor$3@?0??EIO_AfterClose@@YAXPEAUuv_work_s@@@Z@4HA 0000000180017e0a f   serialport.obj
 0001:00016e1a       ?dtor$4@?0??EIO_AfterSet@@YAXPEAUuv_work_s@@@Z@4HA 0000000180017e1a f   serialport.obj
 0001:00016e1a       ?dtor$4@?0??EIO_AfterClose@@YAXPEAUuv_work_s@@@Z@4HA 0000000180017e1a f   serialport.obj
 0001:00016e1a       ?dtor$4@?0??EIO_AfterDrain@@YAXPEAUuv_work_s@@@Z@4HA 0000000180017e1a f   serialport.obj
 0001:00016e1a       ?dtor$4@?0??EIO_AfterFlush@@YAXPEAUuv_work_s@@@Z@4HA 0000000180017e1a f   serialport.obj
 0001:00016e26       ?dtor$5@?0??EIO_AfterSet@@YAXPEAUuv_work_s@@@Z@4HA 0000000180017e26 f   serialport.obj
 0001:00016e26       ?dtor$5@?0??EIO_AfterFlush@@YAXPEAUuv_work_s@@@Z@4HA 0000000180017e26 f   serialport.obj
 0001:00016e26       ?dtor$5@?0??EIO_AfterDrain@@YAXPEAUuv_work_s@@@Z@4HA 0000000180017e26 f   serialport.obj
 0001:00016e26       ?dtor$5@?0??EIO_AfterClose@@YAXPEAUuv_work_s@@@Z@4HA 0000000180017e26 f   serialport.obj
 0001:00016e32       ?dtor$6@?0??EIO_AfterClose@@YAXPEAUuv_work_s@@@Z@4HA 0000000180017e32 f   serialport.obj
 0001:00016e32       ?dtor$6@?0??EIO_AfterFlush@@YAXPEAUuv_work_s@@@Z@4HA 0000000180017e32 f   serialport.obj
 0001:00016e32       ?dtor$6@?0??EIO_AfterSet@@YAXPEAUuv_work_s@@@Z@4HA 0000000180017e32 f   serialport.obj
 0001:00016e32       ?dtor$6@?0??EIO_AfterDrain@@YAXPEAUuv_work_s@@@Z@4HA 0000000180017e32 f   serialport.obj
 0001:00016e40       ?dtor$0@?0??Flush@@YAXAEBV?$FunctionCallbackInfo@VValue@v8@@@Nan@@@Z@4HA 0000000180017e40 f   serialport.obj
 0001:00016e40       ?dtor$0@?0??Get@@YAXAEBV?$FunctionCallbackInfo@VValue@v8@@@Nan@@@Z@4HA 0000000180017e40 f   serialport.obj
 0001:00016e40       ?dtor$0@?0??Drain@@YAXAEBV?$FunctionCallbackInfo@VValue@v8@@@Nan@@@Z@4HA 0000000180017e40 f   serialport.obj
 0001:00016e4c       ?dtor$4@?0??Flush@@YAXAEBV?$FunctionCallbackInfo@VValue@v8@@@Nan@@@Z@4HA 0000000180017e4c f   serialport.obj
 0001:00016e4c       ?dtor$4@?0??Drain@@YAXAEBV?$FunctionCallbackInfo@VValue@v8@@@Nan@@@Z@4HA 0000000180017e4c f   serialport.obj
 0001:00016e4c       ?dtor$4@?0??Get@@YAXAEBV?$FunctionCallbackInfo@VValue@v8@@@Nan@@@Z@4HA 0000000180017e4c f   serialport.obj
 0001:00016e58       ?dtor$3@?0??Get@@YAXAEBV?$FunctionCallbackInfo@VValue@v8@@@Nan@@@Z@4HA 0000000180017e58 f   serialport.obj
 0001:00016e58       ?dtor$3@?0??Drain@@YAXAEBV?$FunctionCallbackInfo@VValue@v8@@@Nan@@@Z@4HA 0000000180017e58 f   serialport.obj
 0001:00016e58       ?dtor$3@?0??Flush@@YAXAEBV?$FunctionCallbackInfo@VValue@v8@@@Nan@@@Z@4HA 0000000180017e58 f   serialport.obj
 0001:00016e64       ?dtor$2@?0??Drain@@YAXAEBV?$FunctionCallbackInfo@VValue@v8@@@Nan@@@Z@4HA 0000000180017e64 f   serialport.obj
 0001:00016e64       ?dtor$2@?0??Flush@@YAXAEBV?$FunctionCallbackInfo@VValue@v8@@@Nan@@@Z@4HA 0000000180017e64 f   serialport.obj
 0001:00016e64       ?dtor$2@?0??Get@@YAXAEBV?$FunctionCallbackInfo@VValue@v8@@@Nan@@@Z@4HA 0000000180017e64 f   serialport.obj
 0001:00016e80       ?dtor$0@?0??Set@@YAXAEBV?$FunctionCallbackInfo@VValue@v8@@@Nan@@@Z@4HA 0000000180017e80 f   serialport.obj
 0001:00016e8c       ?dtor$9@?0??Set@@YAXAEBV?$FunctionCallbackInfo@VValue@v8@@@Nan@@@Z@4HA 0000000180017e8c f   serialport.obj
 0001:00016e98       ?dtor$8@?0??Set@@YAXAEBV?$FunctionCallbackInfo@VValue@v8@@@Nan@@@Z@4HA 0000000180017e98 f   serialport.obj
 0001:00016ea4       ?dtor$7@?0??Set@@YAXAEBV?$FunctionCallbackInfo@VValue@v8@@@Nan@@@Z@4HA 0000000180017ea4 f   serialport.obj
 0001:00016eb4       ?dtor$1@?0??Set@@YAXAEBV?$FunctionCallbackInfo@VValue@v8@@@Nan@@@Z@4HA 0000000180017eb4 f   serialport.obj
 0001:00016ec0       ?dtor$2@?0??Set@@YAXAEBV?$FunctionCallbackInfo@VValue@v8@@@Nan@@@Z@4HA 0000000180017ec0 f   serialport.obj
 0001:00016ecc       ?dtor$3@?0??Set@@YAXAEBV?$FunctionCallbackInfo@VValue@v8@@@Nan@@@Z@4HA 0000000180017ecc f   serialport.obj
 0001:00016ed8       ?dtor$4@?0??Set@@YAXAEBV?$FunctionCallbackInfo@VValue@v8@@@Nan@@@Z@4HA 0000000180017ed8 f   serialport.obj
 0001:00016ee4       ?dtor$5@?0??Set@@YAXAEBV?$FunctionCallbackInfo@VValue@v8@@@Nan@@@Z@4HA 0000000180017ee4 f   serialport.obj
 0001:00016ef0       ?dtor$1@?0??EIO_AfterGet@@YAXPEAUuv_work_s@@@Z@4HA 0000000180017ef0 f   serialport.obj
 0001:00016efe       ?dtor$0@?0??EIO_AfterGet@@YAXPEAUuv_work_s@@@Z@4HA 0000000180017efe f   serialport.obj
 0001:00016f0a       ?dtor$3@?0??EIO_AfterGet@@YAXPEAUuv_work_s@@@Z@4HA 0000000180017f0a f   serialport.obj
 0001:00016f1a       ?dtor$4@?0??EIO_AfterGet@@YAXPEAUuv_work_s@@@Z@4HA 0000000180017f1a f   serialport.obj
 0001:00016f26       ?dtor$5@?0??EIO_AfterGet@@YAXPEAUuv_work_s@@@Z@4HA 0000000180017f26 f   serialport.obj
 0001:00016f32       ?dtor$6@?0??EIO_AfterGet@@YAXPEAUuv_work_s@@@Z@4HA 0000000180017f32 f   serialport.obj
 0001:00016f40       ?dtor$2@?0??ToParityEnum@@YA?AW4SerialPortParity@@AEBV?$Local@VString@v8@@@v8@@@Z@4HA 0000000180017f40 f   serialport.obj
 0001:00016f4e       ?dtor$0@?0??ToParityEnum@@YA?AW4SerialPortParity@@AEBV?$Local@VString@v8@@@v8@@@Z@4HA 0000000180017f4e f   serialport.obj
 0001:00016f5a       ?dtor$1@?0??ToParityEnum@@YA?AW4SerialPortParity@@AEBV?$Local@VString@v8@@@v8@@@Z@4HA 0000000180017f5a f   serialport.obj
 0001:00016f66       ?dtor$3@?0??ToParityEnum@@YA?AW4SerialPortParity@@AEBV?$Local@VString@v8@@@v8@@@Z@4HA 0000000180017f66 f   serialport.obj
 0001:00016f80       init$dtor$1                0000000180017f80 f   serialport.obj
 0001:00016f8e       init$dtor$0                0000000180017f8e f   serialport.obj
 0001:00016f9a       init$dtor$3                0000000180017f9a f   serialport.obj
 0001:00016fa8       init$dtor$2                0000000180017fa8 f   serialport.obj
 0001:00016fb4       init$dtor$4                0000000180017fb4 f   serialport.obj
 0001:00016fc2       init$dtor$6                0000000180017fc2 f   serialport.obj
 0001:00016fd0       init$dtor$5                0000000180017fd0 f   serialport.obj
 0001:00016fdc       init$dtor$7                0000000180017fdc f   serialport.obj
 0001:00016fea       init$dtor$9                0000000180017fea f   serialport.obj
 0001:00016ff8       init$dtor$8                0000000180017ff8 f   serialport.obj
 0001:00017004       init$dtor$10               0000000180018004 f   serialport.obj
 0001:00017012       init$dtor$12               0000000180018012 f   serialport.obj
 0001:00017020       init$dtor$11               0000000180018020 f   serialport.obj
 0001:0001702c       init$dtor$13               000000018001802c f   serialport.obj
 0001:0001703a       init$dtor$15               000000018001803a f   serialport.obj
 0001:00017048       init$dtor$14               0000000180018048 f   serialport.obj
 0001:00017054       init$dtor$16               0000000180018054 f   serialport.obj
 0001:00017062       init$dtor$18               0000000180018062 f   serialport.obj
 0001:00017070       init$dtor$17               0000000180018070 f   serialport.obj
 0001:0001707c       init$dtor$19               000000018001807c f   serialport.obj
 0001:0001708a       init$dtor$21               000000018001808a f   serialport.obj
 0001:00017098       init$dtor$20               0000000180018098 f   serialport.obj
 0001:000170a4       init$dtor$22               00000001800180a4 f   serialport.obj
 0001:000170b2       init$dtor$24               00000001800180b2 f   serialport.obj
 0001:000170c0       init$dtor$23               00000001800180c0 f   serialport.obj
 0001:000170cc       init$dtor$25               00000001800180cc f   serialport.obj
 0001:000170da       init$dtor$27               00000001800180da f   serialport.obj
 0001:000170e8       init$dtor$26               00000001800180e8 f   serialport.obj
 0001:000170f4       init$dtor$28               00000001800180f4 f   serialport.obj
 0001:00017102       init$dtor$30               0000000180018102 f   serialport.obj
 0001:00017110       init$dtor$29               0000000180018110 f   serialport.obj
 0001:0001711c       init$dtor$31               000000018001811c f   serialport.obj
 0001:0001712a       init$dtor$32               000000018001812a f   serialport.obj
 0001:00017140       ?dtor$0@?0??_Copy@?$basic_string@DU?$char_traits@D@std@@V?$allocator@D@2@@std@@QEAAX_K0@Z@4HA 0000000180018140 f   serialport.obj
 0001:00017160       ?dtor$0@?0???$New@VString@v8@@V?$basic_string@DU?$char_traits@D@std@@V?$allocator@D@2@@std@@@Nan@@YA?AV?$MaybeLocal@VString@v8@@@v8@@V?$basic_string@DU?$char_traits@D@std@@V?$allocator@D@2@@std@@@Z@4HA 0000000180018160 f   serialport.obj
 0001:00017170       ?dtor$0@?0??Set@Nan@@YA?AV?$Maybe@_N@v8@@V?$Local@VObject@v8@@@3@IV?$Local@VValue@v8@@@3@@Z@4HA 0000000180018170 f   serialport_win.obj
 0001:00017170       ?dtor$0@?0??Set@Nan@@YA?AV?$Maybe@_N@v8@@V?$Local@VObject@v8@@@3@V?$Local@VValue@v8@@@3@1@Z@4HA 0000000180018170 f   serialport_win.obj
 0001:00017180       ?dtor$2@?0???__Eg_closingHandles@@YAXXZ@4HA 0000000180018180 f   serialport_win.obj
 0001:0001719c       ?dtor$3@?0???__Eg_closingHandles@@YAXXZ@4HA 000000018001819c f   serialport_win.obj
 0001:000171b8       ?dtor$1@?0???__Eg_closingHandles@@YAXXZ@4HA 00000001800181b8 f   serialport_win.obj
 0001:000171c4       ?dtor$0@?0???__Eg_closingHandles@@YAXXZ@4HA 00000001800181c4 f   serialport_win.obj
 0001:000171d0       ?dtor$0@?0???__Fg_closingHandles@@YAXXZ@4HA 00000001800181d0 f   serialport_win.obj
 0001:000171dc       ?dtor$1@?0???__Fg_closingHandles@@YAXXZ@4HA 00000001800181dc f   serialport_win.obj
 0001:000171f0       ?dtor$0@?0??Write@@YAXAEBV?$FunctionCallbackInfo@VValue@v8@@@Nan@@@Z@4HA 00000001800181f0 f   serialport_win.obj
 0001:000171fc       ?dtor$4@?0??Write@@YAXAEBV?$FunctionCallbackInfo@VValue@v8@@@Nan@@@Z@4HA 00000001800181fc f   serialport_win.obj
 0001:00017208       ?dtor$2@?0??Write@@YAXAEBV?$FunctionCallbackInfo@VValue@v8@@@Nan@@@Z@4HA 0000000180018208 f   serialport_win.obj
 0001:00017218       ?dtor$6@?0??Write@@YAXAEBV?$FunctionCallbackInfo@VValue@v8@@@Nan@@@Z@4HA 0000000180018218 f   serialport_win.obj
 0001:00017224       ?dtor$5@?0??Write@@YAXAEBV?$FunctionCallbackInfo@VValue@v8@@@Nan@@@Z@4HA 0000000180018224 f   serialport_win.obj
 0001:00017230       ?dtor$3@?0??Write@@YAXAEBV?$FunctionCallbackInfo@VValue@v8@@@Nan@@@Z@4HA 0000000180018230 f   serialport_win.obj
 0001:00017240       ?dtor$1@?0??EIO_AfterWrite@@YAXPEAUuv_work_s@@@Z@4HA 0000000180018240 f   serialport_win.obj
 0001:0001724e       ?dtor$0@?0??EIO_AfterWrite@@YAXPEAUuv_work_s@@@Z@4HA 000000018001824e f   serialport_win.obj
 0001:0001725a       ?dtor$3@?0??EIO_AfterWrite@@YAXPEAUuv_work_s@@@Z@4HA 000000018001825a f   serialport_win.obj
 0001:0001726a       ?dtor$4@?0??EIO_AfterWrite@@YAXPEAUuv_work_s@@@Z@4HA 000000018001826a f   serialport_win.obj
 0001:0001727a       ?dtor$5@?0??EIO_AfterWrite@@YAXPEAUuv_work_s@@@Z@4HA 000000018001827a f   serialport_win.obj
 0001:00017286       ?dtor$6@?0??EIO_AfterWrite@@YAXPEAUuv_work_s@@@Z@4HA 0000000180018286 f   serialport_win.obj
 0001:00017292       ?dtor$7@?0??EIO_AfterWrite@@YAXPEAUuv_work_s@@@Z@4HA 0000000180018292 f   serialport_win.obj
 0001:0001729e       ?dtor$8@?0??EIO_AfterWrite@@YAXPEAUuv_work_s@@@Z@4HA 000000018001829e f   serialport_win.obj
 0001:000172b0       ?dtor$0@?0??Read@@YAXAEBV?$FunctionCallbackInfo@VValue@v8@@@Nan@@@Z@4HA 00000001800182b0 f   serialport_win.obj
 0001:000172bc       ?dtor$6@?0??Read@@YAXAEBV?$FunctionCallbackInfo@VValue@v8@@@Nan@@@Z@4HA 00000001800182bc f   serialport_win.obj
 0001:000172c8       ?dtor$5@?0??Read@@YAXAEBV?$FunctionCallbackInfo@VValue@v8@@@Nan@@@Z@4HA 00000001800182c8 f   serialport_win.obj
 0001:000172d4       ?dtor$4@?0??Read@@YAXAEBV?$FunctionCallbackInfo@VValue@v8@@@Nan@@@Z@4HA 00000001800182d4 f   serialport_win.obj
 0001:000172f0       ?dtor$1@?0??EIO_AfterRead@@YAXPEAUuv_work_s@@@Z@4HA 00000001800182f0 f   serialport_win.obj
 0001:000172fe       ?dtor$0@?0??EIO_AfterRead@@YAXPEAUuv_work_s@@@Z@4HA 00000001800182fe f   serialport_win.obj
 0001:0001730a       ?dtor$5@?0??EIO_AfterRead@@YAXPEAUuv_work_s@@@Z@4HA 000000018001830a f   serialport_win.obj
 0001:0001731d       ?dtor$6@?0??EIO_AfterRead@@YAXPEAUuv_work_s@@@Z@4HA 000000018001831d f   serialport_win.obj
 0001:00017329       ?dtor$7@?0??EIO_AfterRead@@YAXPEAUuv_work_s@@@Z@4HA 0000000180018329 f   serialport_win.obj
 0001:00017335       ?dtor$8@?0??EIO_AfterRead@@YAXPEAUuv_work_s@@@Z@4HA 0000000180018335 f   serialport_win.obj
 0001:00017350       ?dtor$0@?0??List@@YAXAEBV?$FunctionCallbackInfo@VValue@v8@@@Nan@@@Z@4HA 0000000180018350 f   serialport_win.obj
 0001:00017360       ?dtor$3@?0???0ListBaton@@QEAA@XZ@4HA 0000000180018360 f   serialport_win.obj
 0001:0001736c       ?dtor$2@?0???0ListBaton@@QEAA@XZ@4HA 000000018001836c f   serialport_win.obj
 0001:00017378       ?dtor$0@?0???0ListBaton@@QEAA@XZ@4HA 0000000180018378 f   serialport_win.obj
 0001:00017384       ?dtor$6@?0???0ListBaton@@QEAA@XZ@4HA 0000000180018384 f   serialport_win.obj
 0001:000173a0       ?dtor$7@?0???0ListBaton@@QEAA@XZ@4HA 00000001800183a0 f   serialport_win.obj
 0001:000173bc       ?dtor$5@?0???0ListBaton@@QEAA@XZ@4HA 00000001800183bc f   serialport_win.obj
 0001:000173c8       ?dtor$4@?0???0ListBaton@@QEAA@XZ@4HA 00000001800183c8 f   serialport_win.obj
 0001:000173d4       ?dtor$1@?0???0ListBaton@@QEAA@XZ@4HA 00000001800183d4 f   serialport_win.obj
 0001:000173f0       ?dtor$0@?0??EIO_List@@YAXPEAUuv_work_s@@@Z@4HA 00000001800183f0 f   serialport_win.obj
 0001:000173fc       ?dtor$1@?0??EIO_List@@YAXPEAUuv_work_s@@@Z@4HA 00000001800183fc f   serialport_win.obj
 0001:00017408       ?dtor$2@?0??EIO_List@@YAXPEAUuv_work_s@@@Z@4HA 0000000180018408 f   serialport_win.obj
 0001:00017418       ?dtor$3@?0??EIO_List@@YAXPEAUuv_work_s@@@Z@4HA 0000000180018418 f   serialport_win.obj
 0001:00017428       ?dtor$4@?0??EIO_List@@YAXPEAUuv_work_s@@@Z@4HA 0000000180018428 f   serialport_win.obj
 0001:00017438       ?dtor$5@?0??EIO_List@@YAXPEAUuv_work_s@@@Z@4HA 0000000180018438 f   serialport_win.obj
 0001:0001744b       ?dtor$6@?0??EIO_List@@YAXPEAUuv_work_s@@@Z@4HA 000000018001844b f   serialport_win.obj
 0001:0001745e       ?dtor$7@?0??EIO_List@@YAXPEAUuv_work_s@@@Z@4HA 000000018001845e f   serialport_win.obj
 0001:00017471       ?dtor$8@?0??EIO_List@@YAXPEAUuv_work_s@@@Z@4HA 0000000180018471 f   serialport_win.obj
 0001:00017490       ?dtor$9@?0??EIO_List@@YAXPEAUuv_work_s@@@Z@4HA 0000000180018490 f   serialport_win.obj
 0001:000174af       ?dtor$10@?0??EIO_List@@YAXPEAUuv_work_s@@@Z@4HA 00000001800184af f   serialport_win.obj
 0001:000174d0       ?dtor$0@?0??setIfNotEmpty@@YAXV?$Local@VObject@v8@@@v8@@V?$basic_string@DU?$char_traits@D@std@@V?$allocator@D@2@@std@@PEBD@Z@4HA 00000001800184d0 f   serialport_win.obj
 0001:000174dc       ?dtor$1@?0??setIfNotEmpty@@YAXV?$Local@VObject@v8@@@v8@@V?$basic_string@DU?$char_traits@D@std@@V?$allocator@D@2@@std@@PEBD@Z@4HA 00000001800184dc f   serialport_win.obj
 0001:000174f0       ?dtor$8@?0??EIO_AfterList@@YAXPEAUuv_work_s@@@Z@4HA 00000001800184f0 f   serialport_win.obj
 0001:000174fe       ?dtor$0@?0??EIO_AfterList@@YAXPEAUuv_work_s@@@Z@4HA 00000001800184fe f   serialport_win.obj
 0001:0001750a       ?dtor$1@?0??EIO_AfterList@@YAXPEAUuv_work_s@@@Z@4HA 000000018001850a f   serialport_win.obj
 0001:00017516       ?dtor$2@?0??EIO_AfterList@@YAXPEAUuv_work_s@@@Z@4HA 0000000180018516 f   serialport_win.obj
 0001:00017522       ?dtor$3@?0??EIO_AfterList@@YAXPEAUuv_work_s@@@Z@4HA 0000000180018522 f   serialport_win.obj
 0001:0001752e       ?dtor$4@?0??EIO_AfterList@@YAXPEAUuv_work_s@@@Z@4HA 000000018001852e f   serialport_win.obj
 0001:0001753a       ?dtor$5@?0??EIO_AfterList@@YAXPEAUuv_work_s@@@Z@4HA 000000018001853a f   serialport_win.obj
 0001:00017546       ?dtor$6@?0??EIO_AfterList@@YAXPEAUuv_work_s@@@Z@4HA 0000000180018546 f   serialport_win.obj
 0001:00017552       ?dtor$7@?0??EIO_AfterList@@YAXPEAUuv_work_s@@@Z@4HA 0000000180018552 f   serialport_win.obj
 0001:0001755e       ?dtor$11@?0??EIO_AfterList@@YAXPEAUuv_work_s@@@Z@4HA 000000018001855e f   serialport_win.obj
 0001:0001756a       ?dtor$12@?0??EIO_AfterList@@YAXPEAUuv_work_s@@@Z@4HA 000000018001856a f   serialport_win.obj
 0001:0001757a       ?dtor$13@?0??EIO_AfterList@@YAXPEAUuv_work_s@@@Z@4HA 000000018001857a f   serialport_win.obj
 0001:00017586       ?dtor$14@?0??EIO_AfterList@@YAXPEAUuv_work_s@@@Z@4HA 0000000180018586 f   serialport_win.obj
 0001:00017592       ?dtor$15@?0??EIO_AfterList@@YAXPEAUuv_work_s@@@Z@4HA 0000000180018592 f   serialport_win.obj
 0001:0001759e       ?dtor$16@?0??EIO_AfterList@@YAXPEAUuv_work_s@@@Z@4HA 000000018001859e f   serialport_win.obj
 0001:000175aa       ?dtor$17@?0??EIO_AfterList@@YAXPEAUuv_work_s@@@Z@4HA 00000001800185aa f   serialport_win.obj
 0001:000175c0       ?dtor$0@?0???1ListResultItem@@QEAA@XZ@4HA 00000001800185c0 f   serialport_win.obj
 0001:000175cc       ?dtor$1@?0???1ListResultItem@@QEAA@XZ@4HA 00000001800185cc f   serialport_win.obj
 0001:000175dc       ?dtor$2@?0???1ListResultItem@@QEAA@XZ@4HA 00000001800185dc f   serialport_win.obj
 0001:000175ec       ?dtor$3@?0???1ListResultItem@@QEAA@XZ@4HA 00000001800185ec f   serialport_win.obj
 0001:000175fc       ?dtor$4@?0???1ListResultItem@@QEAA@XZ@4HA 00000001800185fc f   serialport_win.obj
 0001:0001760f       ?dtor$5@?0???1ListResultItem@@QEAA@XZ@4HA 000000018001860f f   serialport_win.obj
 0001:00017622       ?dtor$6@?0???1ListResultItem@@QEAA@XZ@4HA 0000000180018622 f   serialport_win.obj
 0001:00017640       ?dtor$0@?0???1?$list@PEAUListResultItem@@V?$allocator@PEAUListResultItem@@@std@@@std@@QEAA@XZ@4HA 0000000180018640 f   serialport_win.obj
 0001:0001764c       ?dtor$1@?0???1?$list@PEAUListResultItem@@V?$allocator@PEAUListResultItem@@@std@@@std@@QEAA@XZ@4HA 000000018001864c f   serialport_win.obj
 0001:00017660       ?dtor$0@?0???1?$_List_buy@PEAUListResultItem@@V?$allocator@PEAUListResultItem@@@std@@@std@@QEAA@XZ@4HA 0000000180018660 f   serialport_win.obj
 0001:00017670       ?dtor$0@?0???1?$_List_buy@HV?$allocator@H@std@@@std@@QEAA@XZ@4HA 0000000180018670 f   serialport_win.obj
 0001:00017680       ?dtor$0@?0???$_Buynode@AEBH@?$_List_buy@HV?$allocator@H@std@@@std@@QEAAPEAU?$_List_node@HPEAX@1@PEAU21@0AEBH@Z@4HA 0000000180018680 f   serialport_win.obj
 0001:0001769c       ?dtor$1@?0???$_Buynode@AEBH@?$_List_buy@HV?$allocator@H@std@@@std@@QEAAPEAU?$_List_node@HPEAX@1@PEAU21@0AEBH@Z@4HA 000000018001869c f   serialport_win.obj
 0001:000176b8       ?dtor$2@?0???$_Buynode@AEBH@?$_List_buy@HV?$allocator@H@std@@@std@@QEAAPEAU?$_List_node@HPEAX@1@PEAU21@0AEBH@Z@4HA 00000001800186b8 f   serialport_win.obj
 0001:000176d4       _onexit$fin$0              00000001800186d4 f   LIBCMT:onexit.obj
 0001:000176e8       _CRT_INIT$fin$0            00000001800186e8 f   LIBCMT:dllcrt0.obj
 0001:0001770e       __DllMainCRTStartup$filt$0 000000018001870e f   LIBCMT:dllcrt0.obj
 0001:00017757       _CallSETranslator$filt$0   0000000180018757 f   LIBCMT:trnsctrl.obj
 0001:0001779d       doexit$fin$0               000000018001879d f   LIBCMT:crt0dat.obj
 0001:000177c1       flsall$fin$0               00000001800187c1 f   LIBCMT:fflush.obj
 0001:000177e9       flsall$fin$1               00000001800187e9 f   LIBCMT:fflush.obj
 0001:00017802       setvbuf$fin$0              0000000180018802 f   LIBCMT:setvbuf.obj
 0001:0001781a       fwprintf$fin$0             000000018001881a f   LIBCMT:fwprintf.obj
 0001:00017834       raise$fin$0                0000000180018834 f   LIBCMT:winsig.obj
 0001:00017852       _locterm$fin$0             0000000180018852 f   LIBCMT:localref.obj
 0001:00017852       __updatetlocinfo$fin$0     0000000180018852 f   LIBCMT:localref.obj
 0001:0001786b       __updatetmbcinfo$fin$0     000000018001886b f   LIBCMT:mbctype.obj
 0001:0001786b       _setmbcp$fin$0             000000018001886b f   LIBCMT:mbctype.obj
 0001:00017884       _initptd$fin$1             0000000180018884 f   LIBCMT:tidtable.obj
 0001:00017884       _freefls$fin$1             0000000180018884 f   LIBCMT:tidtable.obj
 0001:0001789d       _freefls$fin$0             000000018001889d f   LIBCMT:tidtable.obj
 0001:0001789d       _initptd$fin$0             000000018001889d f   LIBCMT:tidtable.obj
 0001:000178b6       _ioinit$fin$0              00000001800188b6 f   LIBCMT:ioinit.obj
 0001:000178d1       __CxxCallCatchBlock$filt$0 00000001800188d1 f   LIBCMT:frame.obj
 0001:000179c5       __CxxCallCatchBlock$fin$1  00000001800189c5 f   LIBCMT:frame.obj
 0001:00017a43       __DestructExceptionObject$filt$0 0000000180018a43 f   LIBCMT:frame.obj
 0001:00017a5b       __FrameUnwindToState$filt$0 0000000180018a5b f   LIBCMT:frame.obj
 0001:00017a71       __FrameUnwindToState$fin$1 0000000180018a71 f   LIBCMT:frame.obj
 0001:00017a9a       ?fin$0@?0??_Type_info_dtor@type_info@@CAXPEAV1@@Z@4HA 0000000180018a9a f   LIBCMT:typname.obj
 0001:00017ab3       _mtinitlocknum$fin$0       0000000180018ab3 f   LIBCMT:mlock.obj
 0001:00017ad0       _IsNonwritableInCurrentImage$filt$0 0000000180018ad0 f   LIBCMT:pesect.obj
 0001:00017af0       _fcloseall$fin$0           0000000180018af0 f   LIBCMT:closeall.obj
 0001:00017b09       _close$fin$0               0000000180018b09 f   LIBCMT:commit.obj
 0001:00017b09       _commit$fin$0              0000000180018b09 f   LIBCMT:commit.obj
 0001:00017b20       _write$fin$0               0000000180018b20 f   LIBCMT:lseeki64.obj
 0001:00017b20       _lseeki64$fin$0            0000000180018b20 f   LIBCMT:lseeki64.obj
 0001:00017b37       fclose$fin$0               0000000180018b37 f   LIBCMT:fclose.obj
 0001:00017b37       fflush$fin$0               0000000180018b37 f   LIBCMT:fclose.obj
 0001:00017b4f       __lock_fhandle$fin$0       0000000180018b4f f   LIBCMT:osfinfo.obj
 0001:00017b70       ??__Fg_closingHandles@@YAXXZ 0000000180018b70 f   serialport_win.obj
 0002:000002e8       piecewise_construct$initializer$ 00000001800192e8     serialport.obj
 0002:000002f0       allocator_arg$initializer$ 00000001800192f0     serialport.obj
 0002:000002f8       g_closingHandles$initializer$ 00000001800192f8     serialport_win.obj
 0002:00000300       piecewise_construct$initializer$ 0000000180019300     serialport_win.obj
 0002:00000308       allocator_arg$initializer$ 0000000180019308     serialport_win.obj
 0002:00000328       pinit                      0000000180019328     LIBCMT:onexit.obj
 0002:00000330       pinit                      0000000180019330     LIBCMT:cpu_disp.obj
 0002:00000338       pinit                      0000000180019338     LIBCMT:_file.obj
 0002:00000340       pinit                      0000000180019340     LIBCMT:mbctype.obj
 0002:00000358       pterm                      0000000180019358     LIBCMT:wsetloca.obj
 0002:00000360       pterm                      0000000180019360     LIBCMT:initcon.obj
 0002:00000368       pterm                      0000000180019368     LIBCMT:_file.obj
 0002:000003f0       _Win_errtab                00000001800193f0     libcpmt:syserror.obj
 0002:000008a0       _Sys_errtab                00000001800198a0     libcpmt:syserror.obj
 0002:000019d8       GS_ExceptionPointers       000000018001a9d8     LIBCMT:gs_report.obj
 0002:000019f0       ?ExceptionTemplate@?1??_CxxThrowException@@9@4UEHExceptionRecord@@B 000000018001a9f0     LIBCMT:throw.obj
 0002:00001a30       ?ExceptionTemplate@?1??_UnwindNestedFrames@@9@4U_EXCEPTION_RECORD@@B 000000018001aa30     LIBCMT:trnsctrl.obj
 0002:00001b40       rterrs                     000000018001ab40     LIBCMT:crt0msg.obj
 0002:00002a48       _mb_locale_names           000000018001ba48     LIBCMT:mbctype.obj
 0002:00002e60       _first_127char             000000018001be60     LIBCMT:wsetloca.obj
 0002:000062f0       __real@433fffffffffffff    000000018001f2f0     LIBCMT:fpsr.obj
 0002:000062f8       __real@c33fffffffffffff    000000018001f2f8     LIBCMT:fpsr.obj
 0002:00006c50       tokenTable                 000000018001fc50     LIBCMT:undname.obj
 0002:00006cc0       nameTable                  000000018001fcc0     LIBCMT:undname.obj
 0002:00006f40       rttiTable                  000000018001ff40     LIBCMT:undname.obj
 0002:00007e38       $cppxdata$??$New@VString@v8@@V?$basic_string@DU?$char_traits@D@std@@V?$allocator@D@2@@std@@@Nan@@YA?AV?$MaybeLocal@VString@v8@@@v8@@V?$basic_string@DU?$char_traits@D@std@@V?$allocator@D@2@@std@@@Z 0000000180020e38     serialport.obj
 0002:00007e60       $cppxdata$?_Copy@?$basic_string@DU?$char_traits@D@std@@V?$allocator@D@2@@std@@QEAAX_K0@Z 0000000180020e60     serialport.obj
 0002:00007e88       $cppxdata$init             0000000180020e88     serialport.obj
 0002:00007eb0       $cppxdata$?ToParityEnum@@YA?AW4SerialPortParity@@AEBV?$Local@VString@v8@@@v8@@@Z 0000000180020eb0     serialport.obj
 0002:00007ed8       $cppxdata$?Drain@@YAXAEBV?$FunctionCallbackInfo@VValue@v8@@@Nan@@@Z 0000000180020ed8     serialport.obj
 0002:00007f00       $cppxdata$?EIO_AfterGet@@YAXPEAUuv_work_s@@@Z 0000000180020f00     serialport.obj
 0002:00007f28       $cppxdata$?Get@@YAXAEBV?$FunctionCallbackInfo@VValue@v8@@@Nan@@@Z 0000000180020f28     serialport.obj
 0002:00007f50       $cppxdata$?EIO_AfterSet@@YAXPEAUuv_work_s@@@Z 0000000180020f50     serialport.obj
 0002:00007f78       $cppxdata$?Set@@YAXAEBV?$FunctionCallbackInfo@VValue@v8@@@Nan@@@Z 0000000180020f78     serialport.obj
 0002:00007fa0       $cppxdata$?Flush@@YAXAEBV?$FunctionCallbackInfo@VValue@v8@@@Nan@@@Z 0000000180020fa0     serialport.obj
 0002:00007fc8       $cppxdata$?EIO_AfterFlush@@YAXPEAUuv_work_s@@@Z 0000000180020fc8     serialport.obj
 0002:00007fc8       $cppxdata$?EIO_AfterDrain@@YAXPEAUuv_work_s@@@Z 0000000180020fc8     serialport.obj
 0002:00007fc8       $cppxdata$?EIO_AfterClose@@YAXPEAUuv_work_s@@@Z 0000000180020fc8     serialport.obj
 0002:00007ff0       $cppxdata$?Close@@YAXAEBV?$FunctionCallbackInfo@VValue@v8@@@Nan@@@Z 0000000180020ff0     serialport.obj
 0002:00008018       $cppxdata$?EIO_AfterUpdate@@YAXPEAUuv_work_s@@@Z 0000000180021018     serialport.obj
 0002:00008040       $cppxdata$?Update@@YAXAEBV?$FunctionCallbackInfo@VValue@v8@@@Nan@@@Z 0000000180021040     serialport.obj
 0002:00008068       $cppxdata$?EIO_AfterOpen@@YAXPEAUuv_work_s@@@Z 0000000180021068     serialport.obj
 0002:00008090       $cppxdata$?Open@@YAXAEBV?$FunctionCallbackInfo@VValue@v8@@@Nan@@@Z 0000000180021090     serialport.obj
 0002:000080b8       $cppxdata$?getDoubleFromObject@@YANV?$Local@VObject@v8@@@v8@@V?$basic_string@DU?$char_traits@D@std@@V?$allocator@D@2@@std@@@Z 00000001800210b8     serialport.obj
 0002:000080e0       $cppxdata$?getStringFromObj@@YA?AV?$Local@VString@v8@@@v8@@V?$Local@VObject@v8@@@2@V?$basic_string@DU?$char_traits@D@std@@V?$allocator@D@2@@std@@@Z 00000001800210e0     serialport.obj
 0002:00008108       $cppxdata$?getBoolFromObject@@YA_NV?$Local@VObject@v8@@@v8@@V?$basic_string@DU?$char_traits@D@std@@V?$allocator@D@2@@std@@@Z 0000000180021108     serialport.obj
 0002:00008130       $cppxdata$?getIntFromObject@@YAHV?$Local@VObject@v8@@@v8@@V?$basic_string@DU?$char_traits@D@std@@V?$allocator@D@2@@std@@@Z 0000000180021130     serialport.obj
 0002:00008158       $cppxdata$?getValueFromObject@@YA?AV?$Local@VValue@v8@@@v8@@V?$Local@VObject@v8@@@2@V?$basic_string@DU?$char_traits@D@std@@V?$allocator@D@2@@std@@@Z 0000000180021158     serialport.obj
 0002:00008180       $cppxdata$??1?$Persistent@VFunction@v8@@V?$NonCopyablePersistentTraits@VFunction@v8@@@2@@Nan@@QEAA@XZ 0000000180021180     serialport.obj
 0002:00008180       $cppxdata$??1?$Persistent@VObject@v8@@V?$NonCopyablePersistentTraits@VObject@v8@@@2@@Nan@@QEAA@XZ 0000000180021180     serialport_win.obj
 0002:000081a8       $cppxdata$?Call_@Callback@Nan@@AEBA?AV?$Local@VValue@v8@@@v8@@PEAVIsolate@4@V?$Local@VObject@v8@@@4@HQEAV34@@Z 00000001800211a8     serialport.obj
 0002:000081d0       $cppxdata$?Call@Callback@Nan@@QEBA?AV?$Local@VValue@v8@@@v8@@HQEAV34@@Z 00000001800211d0     serialport.obj
 0002:000081f8       $cppxdata$??1Callback@Nan@@QEAA@XZ 00000001800211f8     serialport.obj
 0002:00008220       $cppxdata$??0Utf8String@Nan@@QEAA@V?$Local@VValue@v8@@@v8@@@Z 0000000180021220     serialport.obj
 0002:00008248       $cppxdata$?ThrowTypeError@Nan@@YAXPEBD@Z 0000000180021248     serialport.obj
 0002:00008270       $cppxdata$??1HandleScope@Nan@@QEAA@XZ 0000000180021270     serialport.obj
 0002:00008298       $cppxdata$??1EscapableHandleScope@Nan@@QEAA@XZ 0000000180021298     serialport.obj
 0002:000082c0       $cppxdata$?New@?$Factory@VFunctionTemplate@v8@@@imp@Nan@@SA?AV?$Local@VFunctionTemplate@v8@@@v8@@P6AXAEBV?$FunctionCallbackInfo@VValue@v8@@@3@@ZV?$Local@VValue@v8@@@5@V?$Local@VSignature@v8@@@5@@Z 00000001800212c0     serialport.obj
 0002:000082e8       $cppxdata$?convert@?$ToFactory@H@imp@Nan@@SA?AV?$Maybe@H@v8@@V?$Local@VValue@v8@@@5@@Z 00000001800212e8     serialport.obj
 0002:00008310       $cppxdata$?convert@?$ToFactory@N@imp@Nan@@SA?AV?$Maybe@N@v8@@V?$Local@VValue@v8@@@5@@Z 0000000180021310     serialport.obj
 0002:00008338       $cppxdata$?convert@?$ToFactory@VInt32@v8@@@imp@Nan@@SA?AV?$MaybeLocal@VInt32@v8@@@v8@@V?$Local@VValue@v8@@@5@@Z 0000000180021338     serialport.obj
 0002:00008360       $cppxdata$?convert@?$ToFactory@VString@v8@@@imp@Nan@@SA?AV?$MaybeLocal@VString@v8@@@v8@@V?$Local@VValue@v8@@@5@@Z 0000000180021360     serialport.obj
 0002:00008388       $cppxdata$?convert@?$ToFactory@VBoolean@v8@@@imp@Nan@@SA?AV?$MaybeLocal@VBoolean@v8@@@v8@@V?$Local@VValue@v8@@@5@@Z 0000000180021388     serialport.obj
 0002:000083b0       $cppxdata$?Has@Nan@@YA?AV?$Maybe@_N@v8@@V?$Local@VObject@v8@@@3@V?$Local@VString@v8@@@3@@Z 00000001800213b0     serialport.obj
 0002:000083d8       $cppxdata$?Get@Nan@@YA?AV?$MaybeLocal@VValue@v8@@@v8@@V?$Local@VObject@v8@@@3@V?$Local@VValue@v8@@@3@@Z 00000001800213d8     serialport.obj
 0002:00008400       $cppxdata$?GetFunction@Nan@@YA?AV?$MaybeLocal@VFunction@v8@@@v8@@V?$Local@VFunctionTemplate@v8@@@3@@Z 0000000180021400     serialport.obj
 0002:00008428       $cppxdata$?NewInstance@Nan@@YA?AV?$MaybeLocal@VObject@v8@@@v8@@V?$Local@VObjectTemplate@v8@@@3@@Z 0000000180021428     serialport.obj
 0002:00008468       $cppxdata$??$_Buynode@AEBH@?$_List_buy@HV?$allocator@H@std@@@std@@QEAAPEAU?$_List_node@HPEAX@1@PEAU21@0AEBH@Z 0000000180021468     serialport_win.obj
 0002:00008490       $cppxdata$??1?$_List_buy@HV?$allocator@H@std@@@std@@QEAA@XZ 0000000180021490     serialport_win.obj
 0002:000084b8       $cppxdata$??1?$_List_buy@PEAUListResultItem@@V?$allocator@PEAUListResultItem@@@std@@@std@@QEAA@XZ 00000001800214b8     serialport_win.obj
 0002:000084e0       $cppxdata$??1?$list@PEAUListResultItem@@V?$allocator@PEAUListResultItem@@@std@@@std@@QEAA@XZ 00000001800214e0     serialport_win.obj
 0002:00008508       $cppxdata$??1ListResultItem@@QEAA@XZ 0000000180021508     serialport_win.obj
 0002:00008530       $cppxdata$?EIO_AfterList@@YAXPEAUuv_work_s@@@Z 0000000180021530     serialport_win.obj
 0002:00008558       $cppxdata$?setIfNotEmpty@@YAXV?$Local@VObject@v8@@@v8@@V?$basic_string@DU?$char_traits@D@std@@V?$allocator@D@2@@std@@PEBD@Z 0000000180021558     serialport_win.obj
 0002:00008580       $cppxdata$?EIO_List@@YAXPEAUuv_work_s@@@Z 0000000180021580     serialport_win.obj
 0002:000085a8       $cppxdata$??0ListBaton@@QEAA@XZ 00000001800215a8     serialport_win.obj
 0002:000085d0       $cppxdata$?EIO_AfterRead@@YAXPEAUuv_work_s@@@Z 00000001800215d0     serialport_win.obj
 0002:000085f8       $cppxdata$?EIO_AfterWrite@@YAXPEAUuv_work_s@@@Z 00000001800215f8     serialport_win.obj
 0002:00008620       $cppxdata$??__Fg_closingHandles@@YAXXZ 0000000180021620     serialport_win.obj
 0002:00008648       $cppxdata$??__Eg_closingHandles@@YAXXZ 0000000180021648     serialport_win.obj
 0002:00008670       $cppxdata$?Error@Nan@@YA?AV?$Local@VValue@v8@@@v8@@PEBD@Z 0000000180021670     serialport_win.obj
 0002:00008698       $cppxdata$?convert@?$ToFactory@VInteger@v8@@@imp@Nan@@SA?AV?$MaybeLocal@VInteger@v8@@@v8@@V?$Local@VValue@v8@@@5@@Z 0000000180021698     serialport_win.obj
 0002:000086c0       $cppxdata$?Set@Nan@@YA?AV?$Maybe@_N@v8@@V?$Local@VObject@v8@@@3@IV?$Local@VValue@v8@@@3@@Z 00000001800216c0     serialport_win.obj
 0002:000086e8       $cppxdata$?Set@Nan@@YA?AV?$Maybe@_N@v8@@V?$Local@VObject@v8@@@3@V?$Local@VValue@v8@@@3@1@Z 00000001800216e8     serialport_win.obj
 0002:00008710       $cppxdata$?Write@@YAXAEBV?$FunctionCallbackInfo@VValue@v8@@@Nan@@@Z 0000000180021710     serialport_win.obj
 0002:00008738       $cppxdata$?List@@YAXAEBV?$FunctionCallbackInfo@VValue@v8@@@Nan@@@Z 0000000180021738     serialport_win.obj
 0002:00008760       $cppxdata$?Read@@YAXAEBV?$FunctionCallbackInfo@VValue@v8@@@Nan@@@Z 0000000180021760     serialport_win.obj
 0002:00008c10       $unwind$?FunctionCallbackWrapper@imp@Nan@@YAXAEBV?$FunctionCallbackInfo@VValue@v8@@@v8@@@Z 0000000180021c10     serialport.obj
 0002:00008c10       $unwind$_setargv           0000000180021c10     LIBCMT:stdargv.obj
 0002:00008c20       $unwind$?NewInstance@Nan@@YA?AV?$MaybeLocal@VObject@v8@@@v8@@V?$Local@VObjectTemplate@v8@@@3@@Z 0000000180021c20     serialport.obj
 0002:00008c34       $stateUnwindMap$?NewInstance@Nan@@YA?AV?$MaybeLocal@VObject@v8@@@v8@@V?$Local@VObjectTemplate@v8@@@3@@Z 0000000180021c34     serialport.obj
 0002:00008c34       $stateUnwindMap$?convert@?$ToFactory@VString@v8@@@imp@Nan@@SA?AV?$MaybeLocal@VString@v8@@@v8@@V?$Local@VValue@v8@@@5@@Z 0000000180021c34     serialport.obj
 0002:00008c34       $stateUnwindMap$?convert@?$ToFactory@VBoolean@v8@@@imp@Nan@@SA?AV?$MaybeLocal@VBoolean@v8@@@v8@@V?$Local@VValue@v8@@@5@@Z 0000000180021c34     serialport.obj
 0002:00008c34       $stateUnwindMap$?convert@?$ToFactory@VInteger@v8@@@imp@Nan@@SA?AV?$MaybeLocal@VInteger@v8@@@v8@@V?$Local@VValue@v8@@@5@@Z 0000000180021c34     serialport_win.obj
 0002:00008c34       $stateUnwindMap$?GetFunction@Nan@@YA?AV?$MaybeLocal@VFunction@v8@@@v8@@V?$Local@VFunctionTemplate@v8@@@3@@Z 0000000180021c34     serialport.obj
 0002:00008c34       $stateUnwindMap$?convert@?$ToFactory@VInt32@v8@@@imp@Nan@@SA?AV?$MaybeLocal@VInt32@v8@@@v8@@V?$Local@VValue@v8@@@5@@Z 0000000180021c34     serialport.obj
 0002:00008c48       $ip2state$?NewInstance@Nan@@YA?AV?$MaybeLocal@VObject@v8@@@v8@@V?$Local@VObjectTemplate@v8@@@3@@Z 0000000180021c48     serialport.obj
 0002:00008c60       $unwind$?GetFunction@Nan@@YA?AV?$MaybeLocal@VFunction@v8@@@v8@@V?$Local@VFunctionTemplate@v8@@@3@@Z 0000000180021c60     serialport.obj
 0002:00008c78       $ip2state$?GetFunction@Nan@@YA?AV?$MaybeLocal@VFunction@v8@@@v8@@V?$Local@VFunctionTemplate@v8@@@3@@Z 0000000180021c78     serialport.obj
 0002:00008c90       $unwind$?Get@Nan@@YA?AV?$MaybeLocal@VValue@v8@@@v8@@V?$Local@VObject@v8@@@3@V?$Local@VValue@v8@@@3@@Z 0000000180021c90     serialport.obj
 0002:00008ca4       $stateUnwindMap$?Get@Nan@@YA?AV?$MaybeLocal@VValue@v8@@@v8@@V?$Local@VObject@v8@@@3@V?$Local@VValue@v8@@@3@@Z 0000000180021ca4     serialport.obj
 0002:00008cb8       $ip2state$?Get@Nan@@YA?AV?$MaybeLocal@VValue@v8@@@v8@@V?$Local@VObject@v8@@@3@V?$Local@VValue@v8@@@3@@Z 0000000180021cb8     serialport.obj
 0002:00008cd0       $unwind$?Has@Nan@@YA?AV?$Maybe@_N@v8@@V?$Local@VObject@v8@@@3@V?$Local@VString@v8@@@3@@Z 0000000180021cd0     serialport.obj
 0002:00008ce8       $stateUnwindMap$?convert@?$ToFactory@N@imp@Nan@@SA?AV?$Maybe@N@v8@@V?$Local@VValue@v8@@@5@@Z 0000000180021ce8     serialport.obj
 0002:00008ce8       $stateUnwindMap$?Has@Nan@@YA?AV?$Maybe@_N@v8@@V?$Local@VObject@v8@@@3@V?$Local@VString@v8@@@3@@Z 0000000180021ce8     serialport.obj
 0002:00008ce8       $stateUnwindMap$?convert@?$ToFactory@H@imp@Nan@@SA?AV?$Maybe@H@v8@@V?$Local@VValue@v8@@@5@@Z 0000000180021ce8     serialport.obj
 0002:00008cf0       $ip2state$?Has@Nan@@YA?AV?$Maybe@_N@v8@@V?$Local@VObject@v8@@@3@V?$Local@VString@v8@@@3@@Z 0000000180021cf0     serialport.obj
 0002:00008d08       $unwind$?convert@?$ToFactory@VBoolean@v8@@@imp@Nan@@SA?AV?$MaybeLocal@VBoolean@v8@@@v8@@V?$Local@VValue@v8@@@5@@Z 0000000180021d08     serialport.obj
 0002:00008d20       $ip2state$?convert@?$ToFactory@VBoolean@v8@@@imp@Nan@@SA?AV?$MaybeLocal@VBoolean@v8@@@v8@@V?$Local@VValue@v8@@@5@@Z 0000000180021d20     serialport.obj
 0002:00008d38       $unwind$?convert@?$ToFactory@VString@v8@@@imp@Nan@@SA?AV?$MaybeLocal@VString@v8@@@v8@@V?$Local@VValue@v8@@@5@@Z 0000000180021d38     serialport.obj
 0002:00008d50       $ip2state$?convert@?$ToFactory@VString@v8@@@imp@Nan@@SA?AV?$MaybeLocal@VString@v8@@@v8@@V?$Local@VValue@v8@@@5@@Z 0000000180021d50     serialport.obj
 0002:00008d68       $unwind$?convert@?$ToFactory@VInt32@v8@@@imp@Nan@@SA?AV?$MaybeLocal@VInt32@v8@@@v8@@V?$Local@VValue@v8@@@5@@Z 0000000180021d68     serialport.obj
 0002:00008d80       $ip2state$?convert@?$ToFactory@VInt32@v8@@@imp@Nan@@SA?AV?$MaybeLocal@VInt32@v8@@@v8@@V?$Local@VValue@v8@@@5@@Z 0000000180021d80     serialport.obj
 0002:00008d98       $unwind$?convert@?$ToFactory@N@imp@Nan@@SA?AV?$Maybe@N@v8@@V?$Local@VValue@v8@@@5@@Z 0000000180021d98     serialport.obj
 0002:00008db0       $ip2state$?convert@?$ToFactory@N@imp@Nan@@SA?AV?$Maybe@N@v8@@V?$Local@VValue@v8@@@5@@Z 0000000180021db0     serialport.obj
 0002:00008dc8       $unwind$?convert@?$ToFactory@H@imp@Nan@@SA?AV?$Maybe@H@v8@@V?$Local@VValue@v8@@@5@@Z 0000000180021dc8     serialport.obj
 0002:00008de0       $ip2state$?convert@?$ToFactory@H@imp@Nan@@SA?AV?$Maybe@H@v8@@V?$Local@VValue@v8@@@5@@Z 0000000180021de0     serialport.obj
 0002:00008df8       $unwind$?New@?$Factory@VFunctionTemplate@v8@@@imp@Nan@@SA?AV?$Local@VFunctionTemplate@v8@@@v8@@P6AXAEBV?$FunctionCallbackInfo@VValue@v8@@@3@@ZV?$Local@VValue@v8@@@5@V?$Local@VSignature@v8@@@5@@Z 0000000180021df8     serialport.obj
 0002:00008e10       $stateUnwindMap$?New@?$Factory@VFunctionTemplate@v8@@@imp@Nan@@SA?AV?$Local@VFunctionTemplate@v8@@@v8@@P6AXAEBV?$FunctionCallbackInfo@VValue@v8@@@3@@ZV?$Local@VValue@v8@@@5@V?$Local@VSignature@v8@@@5@@Z 0000000180021e10     serialport.obj
 0002:00008e20       $ip2state$?New@?$Factory@VFunctionTemplate@v8@@@imp@Nan@@SA?AV?$Local@VFunctionTemplate@v8@@@v8@@P6AXAEBV?$FunctionCallbackInfo@VValue@v8@@@3@@ZV?$Local@VValue@v8@@@5@V?$Local@VSignature@v8@@@5@@Z 0000000180021e20     serialport.obj
 0002:00008e38       $unwind$??1EscapableHandleScope@Nan@@QEAA@XZ 0000000180021e38     serialport.obj
 0002:00008e48       $stateUnwindMap$??1EscapableHandleScope@Nan@@QEAA@XZ 0000000180021e48     serialport.obj
 0002:00008e58       $ip2state$??1EscapableHandleScope@Nan@@QEAA@XZ 0000000180021e58     serialport.obj
 0002:00008e60       $unwind$??1HandleScope@Nan@@QEAA@XZ 0000000180021e60     serialport.obj
 0002:00008e70       $stateUnwindMap$??1HandleScope@Nan@@QEAA@XZ 0000000180021e70     serialport.obj
 0002:00008e78       $ip2state$??1HandleScope@Nan@@QEAA@XZ 0000000180021e78     serialport.obj
 0002:00008e80       $unwind$?ThrowTypeError@Nan@@YAXPEBD@Z 0000000180021e80     serialport.obj
 0002:00008e90       $stateUnwindMap$??0Utf8String@Nan@@QEAA@V?$Local@VValue@v8@@@v8@@@Z 0000000180021e90     serialport.obj
 0002:00008e90       $stateUnwindMap$?ThrowTypeError@Nan@@YAXPEBD@Z 0000000180021e90     serialport.obj
 0002:00008ea8       $ip2state$?ThrowTypeError@Nan@@YAXPEBD@Z 0000000180021ea8     serialport.obj
 0002:00008ec0       $unwind$??0Utf8String@Nan@@QEAA@V?$Local@VValue@v8@@@v8@@@Z 0000000180021ec0     serialport.obj
 0002:00008ed8       $ip2state$??0Utf8String@Nan@@QEAA@V?$Local@VValue@v8@@@v8@@@Z 0000000180021ed8     serialport.obj
 0002:00008ef0       $unwind$??1Callback@Nan@@QEAA@XZ 0000000180021ef0     serialport.obj
 0002:00008f00       $stateUnwindMap$??1Callback@Nan@@QEAA@XZ 0000000180021f00     serialport.obj
 0002:00008f10       $ip2state$??1Callback@Nan@@QEAA@XZ 0000000180021f10     serialport.obj
 0002:00008f28       $unwind$?Call@Callback@Nan@@QEBA?AV?$Local@VValue@v8@@@v8@@HQEAV34@@Z 0000000180021f28     serialport.obj
 0002:00008f44       $stateUnwindMap$?Call@Callback@Nan@@QEBA?AV?$Local@VValue@v8@@@v8@@HQEAV34@@Z 0000000180021f44     serialport.obj
 0002:00008f58       $ip2state$?Call@Callback@Nan@@QEBA?AV?$Local@VValue@v8@@@v8@@HQEAV34@@Z 0000000180021f58     serialport.obj
 0002:00008f70       $unwind$?Call_@Callback@Nan@@AEBA?AV?$Local@VValue@v8@@@v8@@PEAVIsolate@4@V?$Local@VObject@v8@@@4@HQEAV34@@Z 0000000180021f70     serialport.obj
 0002:00008f84       $stateUnwindMap$?Error@Nan@@YA?AV?$Local@VValue@v8@@@v8@@PEBD@Z 0000000180021f84     serialport_win.obj
 0002:00008f84       $stateUnwindMap$?Call_@Callback@Nan@@AEBA?AV?$Local@VValue@v8@@@v8@@PEAVIsolate@4@V?$Local@VObject@v8@@@4@HQEAV34@@Z 0000000180021f84     serialport.obj
 0002:00008fa8       $ip2state$?Call_@Callback@Nan@@AEBA?AV?$Local@VValue@v8@@@v8@@PEAVIsolate@4@V?$Local@VObject@v8@@@4@HQEAV34@@Z 0000000180021fa8     serialport.obj
 0002:00008fc0       $unwind$??1?$Persistent@VObject@v8@@V?$NonCopyablePersistentTraits@VObject@v8@@@2@@Nan@@QEAA@XZ 0000000180021fc0     serialport_win.obj
 0002:00008fc0       $unwind$??1?$Persistent@VFunction@v8@@V?$NonCopyablePersistentTraits@VFunction@v8@@@2@@Nan@@QEAA@XZ 0000000180021fc0     serialport.obj
 0002:00008fd0       $stateUnwindMap$??1?$Persistent@VFunction@v8@@V?$NonCopyablePersistentTraits@VFunction@v8@@@2@@Nan@@QEAA@XZ 0000000180021fd0     serialport.obj
 0002:00008fd0       $stateUnwindMap$??1?$Persistent@VObject@v8@@V?$NonCopyablePersistentTraits@VObject@v8@@@2@@Nan@@QEAA@XZ 0000000180021fd0     serialport_win.obj
 0002:00008fd8       $ip2state$??1?$Persistent@VObject@v8@@V?$NonCopyablePersistentTraits@VObject@v8@@@2@@Nan@@QEAA@XZ 0000000180021fd8     serialport_win.obj
 0002:00008fd8       $ip2state$??1?$Persistent@VFunction@v8@@V?$NonCopyablePersistentTraits@VFunction@v8@@@2@@Nan@@QEAA@XZ 0000000180021fd8     serialport.obj
 0002:00008fe0       $unwind$?getValueFromObject@@YA?AV?$Local@VValue@v8@@@v8@@V?$Local@VObject@v8@@@2@V?$basic_string@DU?$char_traits@D@std@@V?$allocator@D@2@@std@@@Z 0000000180021fe0     serialport.obj
 0002:00008ff8       $stateUnwindMap$?getValueFromObject@@YA?AV?$Local@VValue@v8@@@v8@@V?$Local@VObject@v8@@@2@V?$basic_string@DU?$char_traits@D@std@@V?$allocator@D@2@@std@@@Z 0000000180021ff8     serialport.obj
 0002:00009008       $ip2state$?getValueFromObject@@YA?AV?$Local@VValue@v8@@@v8@@V?$Local@VObject@v8@@@2@V?$basic_string@DU?$char_traits@D@std@@V?$allocator@D@2@@std@@@Z 0000000180022008     serialport.obj
 0002:00009020       $unwind$?getIntFromObject@@YAHV?$Local@VObject@v8@@@v8@@V?$basic_string@DU?$char_traits@D@std@@V?$allocator@D@2@@std@@@Z 0000000180022020     serialport.obj
 0002:00009038       $stateUnwindMap$?getIntFromObject@@YAHV?$Local@VObject@v8@@@v8@@V?$basic_string@DU?$char_traits@D@std@@V?$allocator@D@2@@std@@@Z 0000000180022038     serialport.obj
 0002:00009038       $stateUnwindMap$?getBoolFromObject@@YA_NV?$Local@VObject@v8@@@v8@@V?$basic_string@DU?$char_traits@D@std@@V?$allocator@D@2@@std@@@Z 0000000180022038     serialport.obj
 0002:00009038       $stateUnwindMap$?getStringFromObj@@YA?AV?$Local@VString@v8@@@v8@@V?$Local@VObject@v8@@@2@V?$basic_string@DU?$char_traits@D@std@@V?$allocator@D@2@@std@@@Z 0000000180022038     serialport.obj
 0002:00009048       $ip2state$?getIntFromObject@@YAHV?$Local@VObject@v8@@@v8@@V?$basic_string@DU?$char_traits@D@std@@V?$allocator@D@2@@std@@@Z 0000000180022048     serialport.obj
 0002:00009060       $unwind$?getBoolFromObject@@YA_NV?$Local@VObject@v8@@@v8@@V?$basic_string@DU?$char_traits@D@std@@V?$allocator@D@2@@std@@@Z 0000000180022060     serialport.obj
 0002:00009078       $ip2state$?getBoolFromObject@@YA_NV?$Local@VObject@v8@@@v8@@V?$basic_string@DU?$char_traits@D@std@@V?$allocator@D@2@@std@@@Z 0000000180022078     serialport.obj
 0002:00009090       $unwind$?getStringFromObj@@YA?AV?$Local@VString@v8@@@v8@@V?$Local@VObject@v8@@@2@V?$basic_string@DU?$char_traits@D@std@@V?$allocator@D@2@@std@@@Z 0000000180022090     serialport.obj
 0002:000090a8       $ip2state$?getStringFromObj@@YA?AV?$Local@VString@v8@@@v8@@V?$Local@VObject@v8@@@2@V?$basic_string@DU?$char_traits@D@std@@V?$allocator@D@2@@std@@@Z 00000001800220a8     serialport.obj
 0002:000090c0       $unwind$?getDoubleFromObject@@YANV?$Local@VObject@v8@@@v8@@V?$basic_string@DU?$char_traits@D@std@@V?$allocator@D@2@@std@@@Z 00000001800220c0     serialport.obj
 0002:000090dc       $stateUnwindMap$?getDoubleFromObject@@YANV?$Local@VObject@v8@@@v8@@V?$basic_string@DU?$char_traits@D@std@@V?$allocator@D@2@@std@@@Z 00000001800220dc     serialport.obj
 0002:000090f0       $ip2state$?getDoubleFromObject@@YANV?$Local@VObject@v8@@@v8@@V?$basic_string@DU?$char_traits@D@std@@V?$allocator@D@2@@std@@@Z 00000001800220f0     serialport.obj
 0002:00009108       $unwind$?Open@@YAXAEBV?$FunctionCallbackInfo@VValue@v8@@@Nan@@@Z 0000000180022108     serialport.obj
 0002:00009120       $stateUnwindMap$?Open@@YAXAEBV?$FunctionCallbackInfo@VValue@v8@@@Nan@@@Z 0000000180022120     serialport.obj
 0002:00009198       $ip2state$?Open@@YAXAEBV?$FunctionCallbackInfo@VValue@v8@@@Nan@@@Z 0000000180022198     serialport.obj
 0002:000091c0       $unwind$?EIO_AfterOpen@@YAXPEAUuv_work_s@@@Z 00000001800221c0     serialport.obj
 0002:000091d8       $stateUnwindMap$?EIO_AfterOpen@@YAXPEAUuv_work_s@@@Z 00000001800221d8     serialport.obj
 0002:00009208       $ip2state$?EIO_AfterOpen@@YAXPEAUuv_work_s@@@Z 0000000180022208     serialport.obj
 0002:00009230       $unwind$?Update@@YAXAEBV?$FunctionCallbackInfo@VValue@v8@@@Nan@@@Z 0000000180022230     serialport.obj
 0002:00009244       $stateUnwindMap$?Update@@YAXAEBV?$FunctionCallbackInfo@VValue@v8@@@Nan@@@Z 0000000180022244     serialport.obj
 0002:00009270       $ip2state$?Update@@YAXAEBV?$FunctionCallbackInfo@VValue@v8@@@Nan@@@Z 0000000180022270     serialport.obj
 0002:00009288       $unwind$?EIO_AfterUpdate@@YAXPEAUuv_work_s@@@Z 0000000180022288     serialport.obj
 0002:0000929c       $stateUnwindMap$?EIO_AfterUpdate@@YAXPEAUuv_work_s@@@Z 000000018002229c     serialport.obj
 0002:000092d0       $ip2state$?EIO_AfterUpdate@@YAXPEAUuv_work_s@@@Z 00000001800222d0     serialport.obj
 0002:000092f8       $unwind$?Close@@YAXAEBV?$FunctionCallbackInfo@VValue@v8@@@Nan@@@Z 00000001800222f8     serialport.obj
 0002:0000930c       $stateUnwindMap$?Close@@YAXAEBV?$FunctionCallbackInfo@VValue@v8@@@Nan@@@Z 000000018002230c     serialport.obj
 0002:00009330       $ip2state$?Close@@YAXAEBV?$FunctionCallbackInfo@VValue@v8@@@Nan@@@Z 0000000180022330     serialport.obj
 0002:00009348       $unwind$?EIO_AfterFlush@@YAXPEAUuv_work_s@@@Z 0000000180022348     serialport.obj
 0002:00009348       $unwind$?EIO_AfterClose@@YAXPEAUuv_work_s@@@Z 0000000180022348     serialport.obj
 0002:00009348       $unwind$?EIO_AfterDrain@@YAXPEAUuv_work_s@@@Z 0000000180022348     serialport.obj
 0002:0000935c       $stateUnwindMap$?EIO_AfterClose@@YAXPEAUuv_work_s@@@Z 000000018002235c     serialport.obj
 0002:0000935c       $stateUnwindMap$?EIO_AfterDrain@@YAXPEAUuv_work_s@@@Z 000000018002235c     serialport.obj
 0002:0000935c       $stateUnwindMap$?EIO_AfterFlush@@YAXPEAUuv_work_s@@@Z 000000018002235c     serialport.obj
 0002:0000935c       $stateUnwindMap$?EIO_AfterSet@@YAXPEAUuv_work_s@@@Z 000000018002235c     serialport.obj
 0002:00009390       $ip2state$?EIO_AfterClose@@YAXPEAUuv_work_s@@@Z 0000000180022390     serialport.obj
 0002:00009390       $ip2state$?EIO_AfterDrain@@YAXPEAUuv_work_s@@@Z 0000000180022390     serialport.obj
 0002:00009390       $ip2state$?EIO_AfterFlush@@YAXPEAUuv_work_s@@@Z 0000000180022390     serialport.obj
 0002:000093b8       $unwind$?Flush@@YAXAEBV?$FunctionCallbackInfo@VValue@v8@@@Nan@@@Z 00000001800223b8     serialport.obj
 0002:000093cc       $stateUnwindMap$?Drain@@YAXAEBV?$FunctionCallbackInfo@VValue@v8@@@Nan@@@Z 00000001800223cc     serialport.obj
 0002:000093cc       $stateUnwindMap$?Get@@YAXAEBV?$FunctionCallbackInfo@VValue@v8@@@Nan@@@Z 00000001800223cc     serialport.obj
 0002:000093cc       $stateUnwindMap$?Flush@@YAXAEBV?$FunctionCallbackInfo@VValue@v8@@@Nan@@@Z 00000001800223cc     serialport.obj
 0002:000093f0       $ip2state$?Flush@@YAXAEBV?$FunctionCallbackInfo@VValue@v8@@@Nan@@@Z 00000001800223f0     serialport.obj
 0002:00009408       $unwind$?Set@@YAXAEBV?$FunctionCallbackInfo@VValue@v8@@@Nan@@@Z 0000000180022408     serialport.obj
 0002:00009420       $stateUnwindMap$?Set@@YAXAEBV?$FunctionCallbackInfo@VValue@v8@@@Nan@@@Z 0000000180022420     serialport.obj
 0002:00009468       $ip2state$?Set@@YAXAEBV?$FunctionCallbackInfo@VValue@v8@@@Nan@@@Z 0000000180022468     serialport.obj
 0002:00009480       $unwind$?EIO_AfterSet@@YAXPEAUuv_work_s@@@Z 0000000180022480     serialport.obj
 0002:00009498       $ip2state$?EIO_AfterSet@@YAXPEAUuv_work_s@@@Z 0000000180022498     serialport.obj
 0002:000094c0       $unwind$?Get@@YAXAEBV?$FunctionCallbackInfo@VValue@v8@@@Nan@@@Z 00000001800224c0     serialport.obj
 0002:000094d8       $ip2state$?Get@@YAXAEBV?$FunctionCallbackInfo@VValue@v8@@@Nan@@@Z 00000001800224d8     serialport.obj
 0002:000094f0       $unwind$?EIO_AfterGet@@YAXPEAUuv_work_s@@@Z 00000001800224f0     serialport.obj
 0002:00009508       $stateUnwindMap$?EIO_AfterGet@@YAXPEAUuv_work_s@@@Z 0000000180022508     serialport.obj
 0002:00009538       $ip2state$?EIO_AfterGet@@YAXPEAUuv_work_s@@@Z 0000000180022538     serialport.obj
 0002:00009560       $unwind$?Drain@@YAXAEBV?$FunctionCallbackInfo@VValue@v8@@@Nan@@@Z 0000000180022560     serialport.obj
 0002:00009578       $ip2state$?Drain@@YAXAEBV?$FunctionCallbackInfo@VValue@v8@@@Nan@@@Z 0000000180022578     serialport.obj
 0002:00009590       $unwind$?ToParityEnum@@YA?AW4SerialPortParity@@AEBV?$Local@VString@v8@@@v8@@@Z 0000000180022590     serialport.obj
 0002:000095ac       $stateUnwindMap$?ToParityEnum@@YA?AW4SerialPortParity@@AEBV?$Local@VString@v8@@@v8@@@Z 00000001800225ac     serialport.obj
 0002:000095d0       $ip2state$?ToParityEnum@@YA?AW4SerialPortParity@@AEBV?$Local@VString@v8@@@v8@@@Z 00000001800225d0     serialport.obj
 0002:000095f8       $unwind$init               00000001800225f8     serialport.obj
 0002:0000960c       $stateUnwindMap$init       000000018002260c     serialport.obj
 0002:00009720       $ip2state$init             0000000180022720     serialport.obj
 0002:000097d8       $unwind$??0out_of_range@std@@QEAA@AEBV01@@Z 00000001800227d8     libcpmt:xthrow.obj
 0002:000097d8       $unwind$_cinit             00000001800227d8     LIBCMT:crt0dat.obj
 0002:000097d8       $unwind$_callnewh          00000001800227d8     LIBCMT:handler.obj
 0002:000097d8       $unwind$_getptd            00000001800227d8     LIBCMT:tidtable.obj
 0002:000097d8       $unwind$??0logic_error@std@@QEAA@AEBV01@@Z 00000001800227d8     libcpmt:xthrow.obj
 0002:000097d8       $unwind$wcsncpy_s          00000001800227d8     LIBCMT:wcsncpy_s.obj
 0002:000097d8       $unwind$_init_pointers     00000001800227d8     LIBCMT:crt0dat.obj
 0002:000097d8       $unwind$wcsncat_s          00000001800227d8     LIBCMT:wcsncat_s.obj
 0002:000097d8       $unwind$??0length_error@std@@QEAA@AEBV01@@Z 00000001800227d8     libcpmt:xthrow.obj
 0002:000097d8       $unwind$wcscpy_s           00000001800227d8     LIBCMT:wcscpy_s.obj
 0002:000097d8       $unwind$??0bad_alloc@std@@QEAA@AEBV01@@Z 00000001800227d8     libcpmt:xthrow.obj
 0002:000097d8       $unwind$??1?$basic_string@DU?$char_traits@D@std@@V?$allocator@D@2@@std@@QEAA@XZ 00000001800227d8     serialport.obj
 0002:000097d8       $unwind$wcscat_s           00000001800227d8     LIBCMT:wcscat_s.obj
 0002:000097d8       $unwind$_mtinit            00000001800227d8     LIBCMT:tidtable.obj
 0002:000097d8       $unwind$_fflush_nolock     00000001800227d8     LIBCMT:fflush.obj
 0002:000097d8       $unwind$__raise_securityfailure 00000001800227d8     LIBCMT:gs_report.obj
 0002:000097d8       $unwind$__crtExitProcess   00000001800227d8     LIBCMT:crt0dat.obj
 0002:000097d8       $unwind$_getbuf            00000001800227d8     LIBCMT:_getbuf.obj
 0002:000097d8       $unwind$_amsg_exit         00000001800227d8     LIBCMT:crt0dat.obj
 0002:000097d8       $unwind$_freebuf           00000001800227d8     LIBCMT:_freebuf.obj
 0002:000097d8       $unwind$_CreateFrameInfo   00000001800227d8     LIBCMT:trnsctrl.obj
 0002:000097d8       $unwind$?load_exe_hook@@YAP6A_JXZIPEAUDelayLoadInfo@@@Z 00000001800227d8     win_delay_load_hook.obj
 0002:000097d8       $unwind$_IsExceptionObjectToBeDestroyed 00000001800227d8     LIBCMT:trnsctrl.obj
 0002:000097d8       $unwind$_SetImageBase      00000001800227d8     LIBCMT:trnsctrl.obj
 0002:000097d8       $unwind$?_Tidy@exception@std@@AEAAXXZ 00000001800227d8     LIBCMT:stdexcpt.obj
 0002:000097d8       $unwind$_lock_file2        00000001800227d8     LIBCMT:_file.obj
 0002:000097d8       $unwind$_lock_file         00000001800227d8     LIBCMT:_file.obj
 0002:000097d8       $unwind$??0exception@std@@QEAA@AEBV01@@Z 00000001800227d8     LIBCMT:stdexcpt.obj
 0002:000097d8       $unwind$__crtCorExitProcess 00000001800227d8     LIBCMT:crt0dat.obj
 0002:000097d8       $unwind$??0exception@std@@QEAA@AEBQEBD@Z 00000001800227d8     LIBCMT:stdexcpt.obj
 0002:000097d8       $unwind$_SetThrowImageBase 00000001800227d8     LIBCMT:trnsctrl.obj
 0002:000097d8       $unwind$write_char         00000001800227d8     LIBCMT:outputs.obj
 0002:000097d8       $unwind$strcpy_s           00000001800227d8     LIBCMT:strcpy_s.obj
 0002:000097d8       $unwind$??0_LocaleUpdate@@QEAA@PEAUlocaleinfo_struct@@@Z 00000001800227d8     LIBCMT:stricmp.obj
 0002:000097d8       $unwind$__crtLoadWinApiPointers 00000001800227d8     LIBCMT:winapisupp.obj
 0002:000097d8       $unwind$__crtTerminateProcess 00000001800227d8     LIBCMT:winapisupp.obj
 0002:000097d8       $unwind$strncpy_s          00000001800227d8     LIBCMT:strncpy_s.obj
 0002:000097d8       $unwind$__crtUnhandledException 00000001800227d8     LIBCMT:winapisupp.obj
 0002:000097d8       $unwind$write_char         00000001800227d8     LIBCMT:woutput.obj
 0002:000097d8       $unwind$??0bad_exception@std@@QEAA@AEBV01@@Z 00000001800227d8     LIBCMT:frame.obj
 0002:000097d8       $unwind$?__GetUnwindTryBlock@@YAHPEA_KPEAU_xDISPATCHER_CONTEXT@@PEBU_s_FuncInfo@@@Z 00000001800227d8     LIBCMT:ehstate.obj
 0002:000097d8       $unwind$__onexitinit       00000001800227d8     LIBCMT:onexit.obj
 0002:000097d8       $unwind$__crtIsPackagedApp 00000001800227d8     LIBCMT:winapisupp.obj
 0002:000097d8       $unwind$_freeptd           00000001800227d8     LIBCMT:tidtable.obj
 0002:000097d8       $unwind$__GSHandlerCheckCommon 00000001800227d8     LIBCMT:gshandler.obj
 0002:000097e0       $unwind$_mtdeletelocks     00000001800227e0     LIBCMT:mlock.obj
 0002:000097e0       $unwind$?assign@?$basic_string@DU?$char_traits@D@std@@V?$allocator@D@2@@std@@QEAAAEAV12@AEBV12@_K1@Z 00000001800227e0     serialport.obj
 0002:000097e0       $unwind$?__StateFromIp@@YAHPEBU_s_FuncInfo@@PEAU_xDISPATCHER_CONTEXT@@_J@Z 00000001800227e0     LIBCMT:ehstate.obj
 0002:000097e0       $unwind$_initterm          00000001800227e0     LIBCMT:crt0dat.obj
 0002:000097e0       $unwind$xtow_s             00000001800227e0     LIBCMT:xtows.obj
 0002:000097e0       $unwind$?setSBCS@@YAXPEAUthreadmbcinfostruct@@@Z 00000001800227e0     LIBCMT:mbctype.obj
 0002:000097e0       $unwind$_XcptFilter        00000001800227e0     LIBCMT:winxfltr.obj
 0002:000097e0       $unwind$__freetlocinfo     00000001800227e0     LIBCMT:localref.obj
 0002:000097f4       $unwind$_ioterm            00000001800227f4     LIBCMT:ioinit.obj
 0002:000097f4       $unwind$_mtinitlocks       00000001800227f4     LIBCMT:mlock.obj
 0002:000097f4       $unwind$?assign@?$basic_string@DU?$char_traits@D@std@@V?$allocator@D@2@@std@@QEAAAEAV12@PEBD_K@Z 00000001800227f4     serialport.obj
 0002:000097f4       $unwind$memcpy_s           00000001800227f4     LIBCMT:memcpy_s.obj
 0002:000097f4       $unwind$_flush             00000001800227f4     LIBCMT:fflush.obj
 0002:000097f4       $unwind$_lseeki64_nolock   00000001800227f4     LIBCMT:lseeki64.obj
 0002:000097f4       $unwind$_DllMainCRTStartup 00000001800227f4     LIBCMT:dllcrt0.obj
 0002:000097f4       $unwind$realloc            00000001800227f4     LIBCMT:realloc.obj
 0002:000097f4       $unwind$malloc             00000001800227f4     LIBCMT:malloc.obj
 0002:00009804       $unwind$_RTC_Initialize    0000000180022804     LIBCMT:initsect.obj
 0002:00009804       $unwind$?__SetUnwindTryBlock@@YAXPEA_KPEAU_xDISPATCHER_CONTEXT@@PEBU_s_FuncInfo@@H@Z 0000000180022804     LIBCMT:ehstate.obj
 0002:00009804       $unwind$_initp_misc_cfltcvt_tab 0000000180022804     LIBCMT:cmiscdat.obj
 0002:00009804       $unwind$??_Gout_of_range@std@@UEAAPEAXI@Z 0000000180022804     libcpmt:xthrow.obj
 0002:00009804       $unwind$_RTC_Terminate     0000000180022804     LIBCMT:initsect.obj
 0002:00009804       $unwind$??_Glength_error@std@@UEAAPEAXI@Z 0000000180022804     libcpmt:xthrow.obj
 0002:00009804       $unwind$??4exception@std@@QEAAAEAV01@AEBV01@@Z 0000000180022804     LIBCMT:stdexcpt.obj
 0002:00009804       $unwind$_getptd_noexit     0000000180022804     LIBCMT:tidtable.obj
 0002:00009804       $unwind$_close_nolock      0000000180022804     LIBCMT:close.obj
 0002:00009804       $unwind$??_Gexception@std@@UEAAPEAXI@Z 0000000180022804     LIBCMT:stdexcpt.obj
 0002:00009804       $unwind$??_Glogic_error@std@@UEAAPEAXI@Z 0000000180022804     libcpmt:xthrow.obj
 0002:00009804       $unwind$__initstdio        0000000180022804     LIBCMT:_file.obj
 0002:00009804       $unwind$__freeCrtMemory    0000000180022804     LIBCMT:crt0dat.obj
 0002:00009804       $unwind$_FindAndUnlinkFrame 0000000180022804     LIBCMT:trnsctrl.obj
 0002:00009804       $unwind$_initterm_e        0000000180022804     LIBCMT:crt0dat.obj
 0002:00009804       $unwind$_fptostr           0000000180022804     LIBCMT:_fptostr.obj
 0002:00009804       $unwind$_calloc_impl       0000000180022804     LIBCMT:calloc_impl.obj
 0002:00009804       $unwind$??_Gbad_alloc@std@@UEAAPEAXI@Z 0000000180022804     libcpmt:xthrow.obj
 0002:00009804       $unwind$??_Gbad_exception@std@@UEAAPEAXI@Z 0000000180022804     LIBCMT:frame.obj
 0002:00009804       $unwind$_dosmaperr         0000000180022804     LIBCMT:dosmap.obj
 0002:00009804       $unwind$_fclose_nolock     0000000180022804     LIBCMT:fclose.obj
 0002:00009804       $unwind$?erase@?$basic_string@DU?$char_traits@D@std@@V?$allocator@D@2@@std@@QEAAAEAV12@_K0@Z 0000000180022804     serialport.obj
 0002:00009804       $unwind$_lock              0000000180022804     LIBCMT:mlock.obj
 0002:00009804       $unwind$_updatetlocinfoEx_nolock 0000000180022804     LIBCMT:localref.obj
 0002:00009804       $unwind$??_Gtype_info@@UEAAPEAXI@Z 0000000180022804     LIBCMT:typinfo.obj
 0002:00009810       $unwind$?_Copy@?$basic_string@DU?$char_traits@D@std@@V?$allocator@D@2@@std@@QEAAX_K0@Z 0000000180022810     serialport.obj
 0002:00009828       $stateUnwindMap$?_Copy@?$basic_string@DU?$char_traits@D@std@@V?$allocator@D@2@@std@@QEAAX_K0@Z 0000000180022828     serialport.obj
 0002:00009830       $ip2state$?_Copy@?$basic_string@DU?$char_traits@D@std@@V?$allocator@D@2@@std@@QEAAX_K0@Z 0000000180022830     serialport.obj
 0002:00009848       $unwind$_onexit$fin$0      0000000180022848     LIBCMT:onexit.obj
 0002:00009848       $unwind$flsall$fin$1       0000000180022848     LIBCMT:fflush.obj
 0002:00009848       $unwind$fflush$fin$0       0000000180022848     LIBCMT:fflush.obj
 0002:00009848       $unwind$flsall$fin$0       0000000180022848     LIBCMT:fflush.obj
 0002:00009848       $unwind$?dtor$8@?0??EIO_List@@YAXPEAUuv_work_s@@@Z@4HA 0000000180022848     serialport_win.obj
 0002:00009848       $unwind$__CxxCallCatchBlock$filt$0 0000000180022848     LIBCMT:frame.obj
 0002:00009848       $unwind$?dtor$0@?0??_Copy@?$basic_string@DU?$char_traits@D@std@@V?$allocator@D@2@@std@@QEAAX_K0@Z@4HA 0000000180022848     serialport.obj
 0002:00009848       $unwind$_write$fin$0       0000000180022848     LIBCMT:write.obj
 0002:00009848       $unwind$?dtor$7@?0???0ListBaton@@QEAA@XZ@4HA 0000000180022848     serialport_win.obj
 0002:00009848       $unwind$_setmbcp$fin$0     0000000180022848     LIBCMT:mbctype.obj
 0002:00009848       $unwind$__updatetmbcinfo$fin$0 0000000180022848     LIBCMT:mbctype.obj
 0002:00009848       $unwind$_close$fin$0       0000000180022848     LIBCMT:close.obj
 0002:00009848       $unwind$doexit$fin$0       0000000180022848     LIBCMT:crt0dat.obj
 0002:00009848       $unwind$?dtor$6@?0???0ListBaton@@QEAA@XZ@4HA 0000000180022848     serialport_win.obj
 0002:00009848       $unwind$fclose$fin$0       0000000180022848     LIBCMT:fclose.obj
 0002:00009848       $unwind$_fcloseall$fin$0   0000000180022848     LIBCMT:closeall.obj
 0002:00009848       $unwind$?fin$0@?0??_Type_info_dtor@type_info@@CAXPEAV1@@Z@4HA 0000000180022848     LIBCMT:typname.obj
 0002:00009848       $unwind$?dtor$9@?0??EIO_List@@YAXPEAUuv_work_s@@@Z@4HA 0000000180022848     serialport_win.obj
 0002:00009848       $unwind$__FrameUnwindToState$filt$0 0000000180022848     LIBCMT:frame.obj
 0002:00009848       $unwind$_ioinit$fin$0      0000000180022848     LIBCMT:ioinit.obj
 0002:00009848       $unwind$fwprintf$fin$0     0000000180022848     LIBCMT:fwprintf.obj
 0002:00009848       $unwind$?dtor$2@?0???$_Buynode@AEBH@?$_List_buy@HV?$allocator@H@std@@@std@@QEAAPEAU?$_List_node@HPEAX@1@PEAU21@0AEBH@Z@4HA 0000000180022848     serialport_win.obj
 0002:00009848       $unwind$?dtor$2@?0???__Eg_closingHandles@@YAXXZ@4HA 0000000180022848     serialport_win.obj
 0002:00009848       $unwind$?dtor$1@?0???$_Buynode@AEBH@?$_List_buy@HV?$allocator@H@std@@@std@@QEAAPEAU?$_List_node@HPEAX@1@PEAU21@0AEBH@Z@4HA 0000000180022848     serialport_win.obj
 0002:00009848       $unwind$?dtor$3@?0???__Eg_closingHandles@@YAXXZ@4HA 0000000180022848     serialport_win.obj
 0002:00009848       $unwind$?dtor$0@?0???$_Buynode@AEBH@?$_List_buy@HV?$allocator@H@std@@@std@@QEAAPEAU?$_List_node@HPEAX@1@PEAU21@0AEBH@Z@4HA 0000000180022848     serialport_win.obj
 0002:00009848       $unwind$_lseeki64$fin$0    0000000180022848     LIBCMT:lseeki64.obj
 0002:00009848       $unwind$raise$fin$0        0000000180022848     LIBCMT:winsig.obj
 0002:00009848       $unwind$__DllMainCRTStartup$filt$0 0000000180022848     LIBCMT:dllcrt0.obj
 0002:00009848       $unwind$__FrameUnwindToState$fin$1 0000000180022848     LIBCMT:frame.obj
 0002:00009848       $unwind$_commit$fin$0      0000000180022848     LIBCMT:commit.obj
 0002:00009848       $unwind$?dtor$10@?0??EIO_List@@YAXPEAUuv_work_s@@@Z@4HA 0000000180022848     serialport_win.obj
 0002:00009848       $unwind$_CRT_INIT$fin$0    0000000180022848     LIBCMT:dllcrt0.obj
 0002:00009848       $unwind$_freefls$fin$1     0000000180022848     LIBCMT:tidtable.obj
 0002:00009848       $unwind$_locterm$fin$0     0000000180022848     LIBCMT:wsetloca.obj
 0002:00009848       $unwind$_mtinitlocknum$fin$0 0000000180022848     LIBCMT:mlock.obj
 0002:00009848       $unwind$__lock_fhandle$fin$0 0000000180022848     LIBCMT:osfinfo.obj
 0002:00009848       $unwind$_freefls$fin$0     0000000180022848     LIBCMT:tidtable.obj
 0002:00009848       $unwind$_initptd$fin$0     0000000180022848     LIBCMT:tidtable.obj
 0002:00009848       $unwind$_initptd$fin$1     0000000180022848     LIBCMT:tidtable.obj
 0002:00009848       $unwind$__DestructExceptionObject$filt$0 0000000180022848     LIBCMT:frame.obj
 0002:00009848       $unwind$__updatetlocinfo$fin$0 0000000180022848     LIBCMT:localref.obj
 0002:00009848       $unwind$_IsNonwritableInCurrentImage$filt$0 0000000180022848     LIBCMT:pesect.obj
 0002:00009848       $unwind$setvbuf$fin$0      0000000180022848     LIBCMT:setvbuf.obj
 0002:00009850       $unwind$??$New@VString@v8@@V?$basic_string@DU?$char_traits@D@std@@V?$allocator@D@2@@std@@@Nan@@YA?AV?$MaybeLocal@VString@v8@@@v8@@V?$basic_string@DU?$char_traits@D@std@@V?$allocator@D@2@@std@@@Z 0000000180022850     serialport.obj
 0002:0000986c       $stateUnwindMap$??$New@VString@v8@@V?$basic_string@DU?$char_traits@D@std@@V?$allocator@D@2@@std@@@Nan@@YA?AV?$MaybeLocal@VString@v8@@@v8@@V?$basic_string@DU?$char_traits@D@std@@V?$allocator@D@2@@std@@@Z 000000018002286c     serialport.obj
 0002:00009878       $ip2state$??$New@VString@v8@@V?$basic_string@DU?$char_traits@D@std@@V?$allocator@D@2@@std@@@Nan@@YA?AV?$MaybeLocal@VString@v8@@@v8@@V?$basic_string@DU?$char_traits@D@std@@V?$allocator@D@2@@std@@@Z 0000000180022878     serialport.obj
 0002:00009890       $unwind$??$SetMethodAux@V?$Local@VObject@v8@@@v8@@@imp@Nan@@YAXV?$Local@VObject@v8@@@v8@@V?$Local@VString@v8@@@3@V?$Local@VFunctionTemplate@v8@@@3@ZZ 0000000180022890     serialport.obj
 0002:00009898       $unwind$?Set@Nan@@YA?AV?$Maybe@_N@v8@@V?$Local@VObject@v8@@@3@V?$Local@VValue@v8@@@3@1@Z 0000000180022898     serialport_win.obj
 0002:000098ac       $stateUnwindMap$?Set@Nan@@YA?AV?$Maybe@_N@v8@@V?$Local@VObject@v8@@@3@V?$Local@VValue@v8@@@3@1@Z 00000001800228ac     serialport_win.obj
 0002:000098ac       $stateUnwindMap$?Set@Nan@@YA?AV?$Maybe@_N@v8@@V?$Local@VObject@v8@@@3@IV?$Local@VValue@v8@@@3@@Z 00000001800228ac     serialport_win.obj
 0002:000098b8       $ip2state$?Set@Nan@@YA?AV?$Maybe@_N@v8@@V?$Local@VObject@v8@@@3@V?$Local@VValue@v8@@@3@1@Z 00000001800228b8     serialport_win.obj
 0002:000098d0       $unwind$?Set@Nan@@YA?AV?$Maybe@_N@v8@@V?$Local@VObject@v8@@@3@IV?$Local@VValue@v8@@@3@@Z 00000001800228d0     serialport_win.obj
 0002:000098e8       $ip2state$?Set@Nan@@YA?AV?$Maybe@_N@v8@@V?$Local@VObject@v8@@@3@IV?$Local@VValue@v8@@@3@@Z 00000001800228e8     serialport_win.obj
 0002:00009900       $unwind$?convert@?$ToFactory@VInteger@v8@@@imp@Nan@@SA?AV?$MaybeLocal@VInteger@v8@@@v8@@V?$Local@VValue@v8@@@5@@Z 0000000180022900     serialport_win.obj
 0002:00009918       $ip2state$?convert@?$ToFactory@VInteger@v8@@@imp@Nan@@SA?AV?$MaybeLocal@VInteger@v8@@@v8@@V?$Local@VValue@v8@@@5@@Z 0000000180022918     serialport_win.obj
 0002:00009930       $unwind$?Error@Nan@@YA?AV?$Local@VValue@v8@@@v8@@PEBD@Z 0000000180022930     serialport_win.obj
 0002:00009948       $ip2state$?Error@Nan@@YA?AV?$Local@VValue@v8@@@v8@@PEBD@Z 0000000180022948     serialport_win.obj
 0002:00009960       $unwind$??__Eg_closingHandles@@YAXXZ 0000000180022960     serialport_win.obj
 0002:00009970       $stateUnwindMap$??__Eg_closingHandles@@YAXXZ 0000000180022970     serialport_win.obj
 0002:00009990       $ip2state$??__Eg_closingHandles@@YAXXZ 0000000180022990     serialport_win.obj
 0002:000099b8       $unwind$??__Fg_closingHandles@@YAXXZ 00000001800229b8     serialport_win.obj
 0002:000099cc       $stateUnwindMap$??__Fg_closingHandles@@YAXXZ 00000001800229cc     serialport_win.obj
 0002:000099e0       $ip2state$??__Fg_closingHandles@@YAXXZ 00000001800229e0     serialport_win.obj
 0002:000099f8       $unwind$?ErrorCodeToString@@YAXPEBDHPEAD@Z 00000001800229f8     serialport_win.obj
 0002:000099f8       $unwind$wctomb_s           00000001800229f8     LIBCMT:wctomb.obj
 0002:000099f8       $unwind$_itow_s            00000001800229f8     LIBCMT:xtows.obj
 0002:000099f8       $unwind$_vswprintf_c_l     00000001800229f8     LIBCMT:vswprnc.obj
 0002:000099f8       $unwind$_cfltcvt_l         00000001800229f8     LIBCMT:cvt.obj
 0002:000099f8       $unwind$_invalid_parameter_noinfo 00000001800229f8     LIBCMT:invarg.obj
 0002:00009a00       $unwind$?EIO_Open@@YAXPEAUuv_work_s@@@Z 0000000180022a00     serialport_win.obj
 0002:00009a20       $unwind$?EIO_Update@@YAXPEAUuv_work_s@@@Z 0000000180022a20     serialport_win.obj
 0002:00009a34       $unwind$_fassign_l         0000000180022a34     LIBCMT:cvt.obj
 0002:00009a34       $unwind$?EIO_Flush@@YAXPEAUuv_work_s@@@Z 0000000180022a34     serialport_win.obj
 0002:00009a34       $unwind$?EIO_Drain@@YAXPEAUuv_work_s@@@Z 0000000180022a34     serialport_win.obj
 0002:00009a34       $unwind$?EIO_Set@@YAXPEAUuv_work_s@@@Z 0000000180022a34     serialport_win.obj
 0002:00009a34       $unwind$?EIO_Get@@YAXPEAUuv_work_s@@@Z 0000000180022a34     serialport_win.obj
 0002:00009a3c       $unwind$?Write@@YAXAEBV?$FunctionCallbackInfo@VValue@v8@@@Nan@@@Z 0000000180022a3c     serialport_win.obj
 0002:00009a58       $stateUnwindMap$?Write@@YAXAEBV?$FunctionCallbackInfo@VValue@v8@@@Nan@@@Z 0000000180022a58     serialport_win.obj
 0002:00009a88       $ip2state$?Write@@YAXAEBV?$FunctionCallbackInfo@VValue@v8@@@Nan@@@Z 0000000180022a88     serialport_win.obj
 0002:00009ab0       $unwind$?EIO_Write@@YAXPEAUuv_work_s@@@Z 0000000180022ab0     serialport_win.obj
 0002:00009abc       $unwind$?EIO_AfterWrite@@YAXPEAUuv_work_s@@@Z 0000000180022abc     serialport_win.obj
 0002:00009ad0       $stateUnwindMap$?EIO_AfterWrite@@YAXPEAUuv_work_s@@@Z 0000000180022ad0     serialport_win.obj
 0002:00009b10       $ip2state$?EIO_AfterWrite@@YAXPEAUuv_work_s@@@Z 0000000180022b10     serialport_win.obj
 0002:00009b48       $unwind$?Read@@YAXAEBV?$FunctionCallbackInfo@VValue@v8@@@Nan@@@Z 0000000180022b48     serialport_win.obj
 0002:00009b60       $stateUnwindMap$?Read@@YAXAEBV?$FunctionCallbackInfo@VValue@v8@@@Nan@@@Z 0000000180022b60     serialport_win.obj
 0002:00009b80       $ip2state$?Read@@YAXAEBV?$FunctionCallbackInfo@VValue@v8@@@Nan@@@Z 0000000180022b80     serialport_win.obj
 0002:00009b98       $unwind$?EIO_Read@@YAXPEAUuv_work_s@@@Z 0000000180022b98     serialport_win.obj
 0002:00009ba8       $unwind$?EIO_AfterRead@@YAXPEAUuv_work_s@@@Z 0000000180022ba8     serialport_win.obj
 0002:00009bbc       $stateUnwindMap$?EIO_AfterRead@@YAXPEAUuv_work_s@@@Z 0000000180022bbc     serialport_win.obj
 0002:00009bf0       $ip2state$?EIO_AfterRead@@YAXPEAUuv_work_s@@@Z 0000000180022bf0     serialport_win.obj
 0002:00009c18       $unwind$?EIO_Close@@YAXPEAUuv_work_s@@@Z 0000000180022c18     serialport_win.obj
 0002:00009c24       $unwind$?List@@YAXAEBV?$FunctionCallbackInfo@VValue@v8@@@Nan@@@Z 0000000180022c24     serialport_win.obj
 0002:00009c3c       $stateUnwindMap$?List@@YAXAEBV?$FunctionCallbackInfo@VValue@v8@@@Nan@@@Z 0000000180022c3c     serialport_win.obj
 0002:00009c48       $ip2state$?List@@YAXAEBV?$FunctionCallbackInfo@VValue@v8@@@Nan@@@Z 0000000180022c48     serialport_win.obj
 0002:00009c60       $unwind$??0ListBaton@@QEAA@XZ 0000000180022c60     serialport_win.obj
 0002:00009c74       $stateUnwindMap$??0ListBaton@@QEAA@XZ 0000000180022c74     serialport_win.obj
 0002:00009cb8       $ip2state$??0ListBaton@@QEAA@XZ 0000000180022cb8     serialport_win.obj
 0002:00009cf0       $unwind$?EIO_List@@YAXPEAUuv_work_s@@@Z 0000000180022cf0     serialport_win.obj
 0002:00009d1c       $stateUnwindMap$?EIO_List@@YAXPEAUuv_work_s@@@Z 0000000180022d1c     serialport_win.obj
 0002:00009d80       $ip2state$?EIO_List@@YAXPEAUuv_work_s@@@Z 0000000180022d80     serialport_win.obj
 0002:00009e00       $unwind$?setIfNotEmpty@@YAXV?$Local@VObject@v8@@@v8@@V?$basic_string@DU?$char_traits@D@std@@V?$allocator@D@2@@std@@PEBD@Z 0000000180022e00     serialport_win.obj
 0002:00009e18       $stateUnwindMap$?setIfNotEmpty@@YAXV?$Local@VObject@v8@@@v8@@V?$basic_string@DU?$char_traits@D@std@@V?$allocator@D@2@@std@@PEBD@Z 0000000180022e18     serialport_win.obj
 0002:00009e28       $ip2state$?setIfNotEmpty@@YAXV?$Local@VObject@v8@@@v8@@V?$basic_string@DU?$char_traits@D@std@@V?$allocator@D@2@@std@@PEBD@Z 0000000180022e28     serialport_win.obj
 0002:00009e40       $unwind$?EIO_AfterList@@YAXPEAUuv_work_s@@@Z 0000000180022e40     serialport_win.obj
 0002:00009e60       $stateUnwindMap$?EIO_AfterList@@YAXPEAUuv_work_s@@@Z 0000000180022e60     serialport_win.obj
 0002:00009ee0       $ip2state$?EIO_AfterList@@YAXPEAUuv_work_s@@@Z 0000000180022ee0     serialport_win.obj
 0002:00009f98       $unwind$??1ListResultItem@@QEAA@XZ 0000000180022f98     serialport_win.obj
 0002:00009fac       $stateUnwindMap$??1ListResultItem@@QEAA@XZ 0000000180022fac     serialport_win.obj
 0002:00009ff0       $ip2state$??1ListResultItem@@QEAA@XZ 0000000180022ff0     serialport_win.obj
 0002:0000a030       $unwind$??1?$list@PEAUListResultItem@@V?$allocator@PEAUListResultItem@@@std@@@std@@QEAA@XZ 0000000180023030     serialport_win.obj
 0002:0000a044       $stateUnwindMap$??1?$list@PEAUListResultItem@@V?$allocator@PEAUListResultItem@@@std@@@std@@QEAA@XZ 0000000180023044     serialport_win.obj
 0002:0000a058       $ip2state$??1?$list@PEAUListResultItem@@V?$allocator@PEAUListResultItem@@@std@@@std@@QEAA@XZ 0000000180023058     serialport_win.obj
 0002:0000a070       $unwind$??1?$_List_buy@PEAUListResultItem@@V?$allocator@PEAUListResultItem@@@std@@@std@@QEAA@XZ 0000000180023070     serialport_win.obj
 0002:0000a080       $stateUnwindMap$??1?$_List_buy@PEAUListResultItem@@V?$allocator@PEAUListResultItem@@@std@@@std@@QEAA@XZ 0000000180023080     serialport_win.obj
 0002:0000a088       $ip2state$??1?$_List_buy@PEAUListResultItem@@V?$allocator@PEAUListResultItem@@@std@@@std@@QEAA@XZ 0000000180023088     serialport_win.obj
 0002:0000a090       $unwind$??1?$_List_buy@HV?$allocator@H@std@@@std@@QEAA@XZ 0000000180023090     serialport_win.obj
 0002:0000a0a0       $stateUnwindMap$??1?$_List_buy@HV?$allocator@H@std@@@std@@QEAA@XZ 00000001800230a0     serialport_win.obj
 0002:0000a0a8       $ip2state$??1?$_List_buy@HV?$allocator@H@std@@@std@@QEAA@XZ 00000001800230a8     serialport_win.obj
 0002:0000a0b0       $unwind$??$_Buynode@AEBH@?$_List_buy@HV?$allocator@H@std@@@std@@QEAAPEAU?$_List_node@HPEAX@1@PEAU21@0AEBH@Z 00000001800230b0     serialport_win.obj
 0002:0000a0c8       $stateUnwindMap$??$_Buynode@AEBH@?$_List_buy@HV?$allocator@H@std@@@std@@QEAAPEAU?$_List_node@HPEAX@1@PEAU21@0AEBH@Z 00000001800230c8     serialport_win.obj
 0002:0000a0e0       $ip2state$??$_Buynode@AEBH@?$_List_buy@HV?$allocator@H@std@@@std@@QEAAPEAU?$_List_node@HPEAX@1@PEAU21@0AEBH@Z 00000001800230e0     serialport_win.obj
 0002:0000a118       xdata                      0000000180023118     node:node.exe
 0002:0000a120       $xdatasym                  0000000180023120     LIBCMT:amdsecgs.obj
 0002:0000a128       $xdatasym                  0000000180023128     LIBCMT:memcpy.obj
 0002:0000a12c       $unwind$swprintf           000000018002312c     LIBCMT:wassert.obj
 0002:0000a134       $unwind$_wassert           0000000180023134     LIBCMT:wassert.obj
 0002:0000a158       $unwind$_onexit            0000000180023158     LIBCMT:onexit.obj
 0002:0000a188       $unwind$_snprintf_s        0000000180023188     LIBCMT:sprintf.obj
 0002:0000a190       $unwind$strstr             0000000180023190     LIBCMT:strstr.obj
 0002:0000a1a0       $xdatasym                  00000001800231a0     LIBCMT:strncpy.obj
 0002:0000a1a4       $unwind$__report_securityfailure 00000001800231a4     LIBCMT:gs_report.obj
 0002:0000a1ac       $unwind$_CRT_INIT          00000001800231ac     LIBCMT:dllcrt0.obj
 0002:0000a1cc       $unwind$__DllMainCRTStartup 00000001800231cc     LIBCMT:dllcrt0.obj
 0002:0000a1f8       $xdatasym                  00000001800231f8     LIBCMT:strlen.obj
 0002:0000a1fc       $unwind$_CxxThrowException 00000001800231fc     LIBCMT:throw.obj
 0002:0000a20c       $unwind$?__FrameUnwindToEmptyState@@YAXPEA_KPEAU_xDISPATCHER_CONTEXT@@PEBU_s_FuncInfo@@@Z 000000018002320c     LIBCMT:trnsctrl.obj
 0002:0000a220       $unwind$_UnwindNestedFrames 0000000180023220     LIBCMT:trnsctrl.obj
 0002:0000a234       $unwind$_CallSETranslator  0000000180023234     LIBCMT:trnsctrl.obj
 0002:0000a254       $unwind$_CallSETranslator$filt$0 0000000180023254     LIBCMT:trnsctrl.obj
 0002:0000a25c       $unwind$?_GetEstablisherFrame@@YAPEA_KPEA_KPEAU_xDISPATCHER_CONTEXT@@PEBU_s_FuncInfo@@0@Z 000000018002325c     LIBCMT:trnsctrl.obj
 0002:0000a274       $unwind$__CxxFrameHandler3 0000000180023274     LIBCMT:trnsctrl.obj
 0002:0000a284       $unwind$?_Copy_str@exception@std@@AEAAXPEBD@Z 0000000180023284     LIBCMT:stdexcpt.obj
 0002:0000a294       $unwind$__isa_available_init 0000000180023294     LIBCMT:cpu_disp.obj
 0002:0000a2a8       $unwind$__termconout       00000001800232a8     LIBCMT:dosmap.obj
 0002:0000a2a8       $unwind$__doserrno         00000001800232a8     LIBCMT:dosmap.obj
 0002:0000a2a8       $unwind$_fileno            00000001800232a8     LIBCMT:dosmap.obj
 0002:0000a2a8       $unwind$_heap_init         00000001800232a8     LIBCMT:dosmap.obj
 0002:0000a2a8       $unwind$_errno             00000001800232a8     LIBCMT:dosmap.obj
 0002:0000a2a8       $unwind$??8type_info@@QEBA_NAEBV0@@Z 00000001800232a8     LIBCMT:dosmap.obj
 0002:0000a2a8       $unwind$_msize             00000001800232a8     LIBCMT:dosmap.obj
 0002:0000a2a8       $unwind$_FF_MSGBANNER      00000001800232a8     LIBCMT:dosmap.obj
 0002:0000a2a8       $unwind$__report_rangecheckfailure 00000001800232a8     LIBCMT:dosmap.obj
 0002:0000a2a8       $unwind$__GSHandlerCheck   00000001800232a8     LIBCMT:dosmap.obj
 0002:0000a2a8       $unwind$__initmbctable     00000001800232a8     LIBCMT:dosmap.obj
 0002:0000a2a8       $unwind$__crtInitializeCriticalSectionEx 00000001800232a8     LIBCMT:dosmap.obj
 0002:0000a2a8       $unwind$abort              00000001800232a8     LIBCMT:dosmap.obj
 0002:0000a2a8       $unwind$_GetImageBase      00000001800232a8     LIBCMT:dosmap.obj
 0002:0000a2a8       $unwind$__FrameUnwindFilter 00000001800232a8     LIBCMT:dosmap.obj
 0002:0000a2a8       $unwind$_mtterm            00000001800232a8     LIBCMT:dosmap.obj
 0002:0000a2a8       $unwind$?__GetCurrentState@@YAHPEA_KPEAU_xDISPATCHER_CONTEXT@@PEBU_s_FuncInfo@@@Z 00000001800232a8     LIBCMT:dosmap.obj
 0002:0000a2a8       $unwind$__crtDownlevelLocaleNameToLCID 00000001800232a8     LIBCMT:dosmap.obj
 0002:0000a2a8       $unwind$_initp_eh_hooks    00000001800232a8     LIBCMT:dosmap.obj
 0002:0000a2a8       $unwind$_invoke_watson     00000001800232a8     LIBCMT:dosmap.obj
 0002:0000a2a8       $unwind$_isatty            00000001800232a8     LIBCMT:dosmap.obj
 0002:0000a2a8       $unwind$_GetThrowImageBase 00000001800232a8     LIBCMT:dosmap.obj
 0002:0000a2a8       $unwind$__endstdio         00000001800232a8     LIBCMT:dosmap.obj
 0002:0000a2a8       $unwind$_strnicmp          00000001800232a8     LIBCMT:dosmap.obj
 0002:0000a2a8       $unwind$atexit             00000001800232a8     LIBCMT:dosmap.obj
 0002:0000a2a8       $unwind$_get_osfhandle     00000001800232a8     LIBCMT:dosmap.obj
 0002:0000a2a8       $unwind$_set_error_mode    00000001800232a8     LIBCMT:dosmap.obj
 0002:0000a2a8       $unwind$_stricmp           00000001800232a8     LIBCMT:dosmap.obj
 0002:0000a2b0       $unwind$doexit             00000001800232b0     LIBCMT:crt0dat.obj
 0002:0000a2e0       $unwind$_NMSG_WRITE        00000001800232e0     LIBCMT:crt0msg.obj
 0002:0000a304       $unwind$_call_reportfault  0000000180023304     LIBCMT:invarg.obj
 0002:0000a324       $unwind$_setenvp           0000000180023324     LIBCMT:invarg.obj
 0002:0000a324       $unwind$_invalid_parameter 0000000180023324     LIBCMT:invarg.obj
 0002:0000a338       $unwind$fflush             0000000180023338     LIBCMT:fflush.obj
 0002:0000a35c       $unwind$flsall             000000018002335c     LIBCMT:fflush.obj
 0002:0000a39c       $unwind$setvbuf            000000018002339c     LIBCMT:setvbuf.obj
 0002:0000a3c8       $unwind$fwprintf           00000001800233c8     LIBCMT:fwprintf.obj
 0002:0000a3ec       $unwind$_vsnprintf_helper  00000001800233ec     LIBCMT:vswprnc.obj
 0002:0000a3ec       $unwind$_vswprintf_helper  00000001800233ec     LIBCMT:vswprnc.obj
 0002:0000a404       $unwind$raise              0000000180023404     LIBCMT:winsig.obj
 0002:0000a434       $unwind$__crtMessageBoxW   0000000180023434     LIBCMT:crtmboxw.obj
 0002:0000a450       $unwind$__GSHandlerCheck_EH 0000000180023450     LIBCMT:crtheap.obj
 0002:0000a450       $unwind$_malloc_crt        0000000180023450     LIBCMT:crtheap.obj
 0002:0000a450       $unwind$_realloc_crt       0000000180023450     LIBCMT:crtheap.obj
 0002:0000a450       $unwind$GetTableIndexFromLocaleName 0000000180023450     LIBCMT:crtheap.obj
 0002:0000a450       $unwind$_calloc_crt        0000000180023450     LIBCMT:crtheap.obj
 0002:0000a450       $unwind$__TypeMatch        0000000180023450     LIBCMT:crtheap.obj
 0002:0000a468       $unwind$__C_specific_handler 0000000180023468     LIBCMT:chandler.obj
 0002:0000a484       $unwind$_flsbuf            0000000180023484     LIBCMT:_flsbuf.obj
 0002:0000a498       $unwind$_vsnprintf_s_l     0000000180023498     LIBCMT:vsnprnc.obj
 0002:0000a4b0       $xdatasym                  00000001800234b0     LIBCMT:memset.obj
 0002:0000a4b4       $unwind$__crtCaptureCurrentContext 00000001800234b4     LIBCMT:winapisupp.obj
 0002:0000a4c0       $unwind$__crtCapturePreviousContext 00000001800234c0     LIBCMT:winapisupp.obj
 0002:0000a4cc       $unwind$__updatetlocinfo   00000001800234cc     LIBCMT:localref.obj
 0002:0000a4ec       $unwind$__updatetmbcinfo   00000001800234ec     LIBCMT:mbctype.obj
 0002:0000a510       $unwind$_setmbcp           0000000180023510     LIBCMT:mbctype.obj
 0002:0000a540       $unwind$_setmbcp_nolock    0000000180023540     LIBCMT:mbctype.obj
 0002:0000a560       $unwind$?setSBUpLow@@YAXPEAUthreadmbcinfostruct@@@Z 0000000180023560     LIBCMT:mbctype.obj
 0002:0000a57c       $unwind$_tolower_l         000000018002357c     LIBCMT:tolower.obj
 0002:0000a58c       $unwind$_freefls           000000018002358c     LIBCMT:tidtable.obj
 0002:0000a5c0       $unwind$_initptd           00000001800235c0     LIBCMT:tidtable.obj
 0002:0000a5f4       $unwind$_locterm           00000001800235f4     LIBCMT:wsetloca.obj
 0002:0000a614       $unwind$_ioinit            0000000180023614     LIBCMT:ioinit.obj
 0002:0000a65c       $unwind$parse_cmdline      000000018002365c     LIBCMT:stdargv.obj
 0002:0000a65c       $unwind$?_GetRangeOfTrysToCheck@@YAPEBU_s_TryBlockMapEntry@@PEA_KPEBU_s_FuncInfo@@HHPEAI2PEAU_xDISPATCHER_CONTEXT@@@Z 000000018002365c     LIBCMT:stdargv.obj
 0002:0000a678       $unwind$__security_init_cookie 0000000180023678     LIBCMT:gs_support.obj
 0002:0000a684       $unwind$__crtGetEnvironmentStringsA 0000000180023684     LIBCMT:a_env.obj
 0002:0000a684       $unwind$_cftof2_l          0000000180023684     LIBCMT:a_env.obj
 0002:0000a69c       $unwind$__CxxCallCatchBlock 000000018002369c     LIBCMT:frame.obj
 0002:0000a6dc       $unwind$__CxxCallCatchBlock$fin$1 00000001800236dc     LIBCMT:frame.obj
 0002:0000a6e8       $unwind$__FrameUnwindToState 00000001800236e8     LIBCMT:frame.obj
 0002:0000a724       $unwind$?FindHandler@@YAXPEAUEHExceptionRecord@@PEA_KPEAU_CONTEXT@@PEAU_xDISPATCHER_CONTEXT@@PEBU_s_FuncInfo@@EH1@Z 0000000180023724     LIBCMT:frame.obj
 0002:0000a740       $unwind$?CatchIt@@YAXPEAUEHExceptionRecord@@PEA_KPEAU_CONTEXT@@PEAU_xDISPATCHER_CONTEXT@@PEBU_s_FuncInfo@@PEBU_s_HandlerType@@PEBU_s_CatchableType@@PEBU_s_TryBlockMapEntry@@H1EE@Z 0000000180023740     LIBCMT:frame.obj
 0002:0000a758       $unwind$__BuildCatchObject 0000000180023758     LIBCMT:frame.obj
 0002:0000a784       $unwind$?FindHandlerForForeignException@@YAXPEAUEHExceptionRecord@@PEA_KPEAU_CONTEXT@@PEAU_xDISPATCHER_CONTEXT@@PEBU_s_FuncInfo@@HH1@Z 0000000180023784     LIBCMT:frame.obj
 0002:0000a79c       $unwind$__DestructExceptionObject 000000018002379c     LIBCMT:frame.obj
 0002:0000a7bc       $unwind$?IsInExceptionSpec@@YAEPEAUEHExceptionRecord@@PEBU_s_ESTypeList@@@Z 00000001800237bc     LIBCMT:frame.obj
 0002:0000a7d8       $unwind$__InternalCxxFrameHandler 00000001800237d8     LIBCMT:frame.obj
 0002:0000a7f0       $unwind$__BuildCatchObjectHelper 00000001800237f0     LIBCMT:frame.obj
 0002:0000a820       $unwind$?terminate@@YAXXZ  0000000180023820     LIBCMT:hooks.obj
 0002:0000a840       $unwind$?_inconsistency@@YAXXZ 0000000180023840     LIBCMT:hooks.obj
 0002:0000a860       $xdatasym                  0000000180023860     LIBCMT:strcmp.obj
 0002:0000a864       $unwind$?_Type_info_dtor@type_info@@CAXPEAV1@@Z 0000000180023864     LIBCMT:typname.obj
 0002:0000a884       $unwind$_cftoe2_l          0000000180023884     LIBCMT:cvt.obj
 0002:0000a8a0       $unwind$_cftoe_l           00000001800238a0     LIBCMT:cvt.obj
 0002:0000a8b8       $unwind$_cftoa_l           00000001800238b8     LIBCMT:cvt.obj
 0002:0000a8d4       $unwind$_cftof_l           00000001800238d4     LIBCMT:cvt.obj
 0002:0000a8ec       $unwind$_cftog_l           00000001800238ec     LIBCMT:cvt.obj
 0002:0000a904       $unwind$_mtinitlocknum     0000000180023904     LIBCMT:mlock.obj
 0002:0000a92c       $unwind$_IsNonwritableInCurrentImage 000000018002392c     LIBCMT:pesect.obj
 0002:0000a950       $unwind$_ftbuf             0000000180023950     LIBCMT:_sftbuf.obj
 0002:0000a958       $unwind$_fcloseall         0000000180023958     LIBCMT:closeall.obj
 0002:0000a980       $unwind$_commit            0000000180023980     LIBCMT:commit.obj
 0002:0000a9a8       $unwind$_write             00000001800239a8     LIBCMT:write.obj
 0002:0000a9d4       $unwind$_write_nolock      00000001800239d4     LIBCMT:write.obj
 0002:0000a9f8       $unwind$_woutput_l         00000001800239f8     LIBCMT:woutput.obj
 0002:0000aa1c       $unwind$write_multi_char   0000000180023a1c     LIBCMT:woutput.obj
 0002:0000aa1c       $unwind$write_multi_char   0000000180023a1c     LIBCMT:woutput.obj
 0002:0000aa30       $unwind$write_string       0000000180023a30     LIBCMT:woutput.obj
 0002:0000aa30       $unwind$write_string       0000000180023a30     LIBCMT:woutput.obj
 0002:0000aa48       $xdatasym                  0000000180023a48     LIBCMT:jmpuwind.obj
 0002:0000aa5c       $unwind$__crtLCMapStringEx 0000000180023a5c     LIBCMT:winapinls.obj
 0002:0000aa70       $xdatasym                  0000000180023a70     LIBCMT:fpsr.obj
 0002:0000aa78       $unwind$_lseeki64          0000000180023a78     LIBCMT:lseeki64.obj
 0002:0000aaa4       $unwind$_output_s_l        0000000180023aa4     LIBCMT:outputs.obj
 0002:0000aac8       $unwind$isleadbyte         0000000180023ac8     LIBCMT:_wctype.obj
 0002:0000aac8       $unwind$isdigit            0000000180023ac8     LIBCMT:_wctype.obj
 0002:0000aac8       $unwind$_cropzeros_l       0000000180023ac8     LIBCMT:_wctype.obj
 0002:0000aac8       $unwind$_isleadbyte_l      0000000180023ac8     LIBCMT:_wctype.obj
 0002:0000aac8       $unwind$??2@YAPEAX_K@Z     0000000180023ac8     LIBCMT:_wctype.obj
 0002:0000aac8       $unwind$?getSystemCP@@YAHH@Z 0000000180023ac8     LIBCMT:_wctype.obj
 0002:0000aac8       $unwind$_forcdecpt_l       0000000180023ac8     LIBCMT:_wctype.obj
 0002:0000aad0       $unwind$_wctomb_s_l        0000000180023ad0     LIBCMT:wctomb.obj
 0002:0000aae0       $unwind$free               0000000180023ae0     LIBCMT:initnum.obj
 0002:0000aae0       $unwind$__free_lconv_num   0000000180023ae0     LIBCMT:initnum.obj
 0002:0000aae8       $unwind$__free_lconv_mon   0000000180023ae8     LIBCMT:inittime.obj
 0002:0000aae8       $unwind$__free_lc_time     0000000180023ae8     LIBCMT:inittime.obj
 0002:0000aaf0       $unwind$__crtLCMapStringA  0000000180023af0     LIBCMT:a_map.obj
 0002:0000ab00       $unwind$?__crtLCMapStringA_stat@@YAHPEAUlocaleinfo_struct@@PEB_WKPEBDHPEADHHH@Z 0000000180023b00     LIBCMT:a_map.obj
 0002:0000ab28       $unwind$__crtGetStringTypeA 0000000180023b28     LIBCMT:a_str.obj
 0002:0000ab38       $unwind$?__crtGetStringTypeA_stat@@YAHPEAUlocaleinfo_struct@@KPEBDHPEAGHH@Z 0000000180023b38     LIBCMT:a_str.obj
 0002:0000ab60       $unwind$_isctype_l         0000000180023b60     LIBCMT:isctype.obj
 0002:0000ab70       $xdatasym                  0000000180023b70     LIBCMT:memcmp.obj
 0002:0000ab74       $unwind$_stricmp_l         0000000180023b74     LIBCMT:ismbbyte.obj
 0002:0000ab74       $unwind$?x_ismbbtype_l@@YAHPEAUlocaleinfo_struct@@IHH@Z 0000000180023b74     LIBCMT:ismbbyte.obj
 0002:0000ab88       $xdatasym                  0000000180023b88     LIBCMT:handlers.obj
 0002:0000ab90       $unwind$strrchr            0000000180023b90     LIBCMT:strrchr.obj
 0002:0000ab98       $unwind$_atodbl_l          0000000180023b98     LIBCMT:atodbl.obj
 0002:0000abac       $unwind$__crt_atoflt_l     0000000180023bac     LIBCMT:atodbl.obj
 0002:0000abc0       $unwind$_fltout2           0000000180023bc0     LIBCMT:cfout.obj
 0002:0000abd8       $unwind$__dtold            0000000180023bd8     LIBCMT:cfout.obj
 0002:0000abe0       $unwind$fclose             0000000180023be0     LIBCMT:fclose.obj
 0002:0000ac04       $unwind$_stbuf             0000000180023c04     LIBCMT:osfinfo.obj
 0002:0000ac04       $unwind$_free_osfhnd       0000000180023c04     LIBCMT:osfinfo.obj
 0002:0000ac14       $unwind$__lock_fhandle     0000000180023c14     LIBCMT:osfinfo.obj
 0002:0000ac40       $unwind$_mbtowc_l          0000000180023c40     LIBCMT:mbtowc.obj
 0002:0000ac58       $unwind$_putwch_nolock     0000000180023c58     LIBCMT:putwch.obj
 0002:0000ac58       $unwind$__report_gsfailure 0000000180023c58     LIBCMT:putwch.obj
 0002:0000ac60       $xdatasym                  0000000180023c60     LIBCMT:chkstk.obj
 0002:0000ac68       $unwind$_fputwc_nolock     0000000180023c68     LIBCMT:fputwc.obj
 0002:0000ac84       $unwind$_ld12tof           0000000180023c84     LIBCMT:intrncvt.obj
 0002:0000ac84       $unwind$_ld12tod           0000000180023c84     LIBCMT:intrncvt.obj
 0002:0000aca8       $unwind$__strgtold12_l     0000000180023ca8     LIBCMT:strgtold.obj
 0002:0000accc       $unwind$$I10_OUTPUT        0000000180023ccc     LIBCMT:x10fout.obj
 0002:0000acf0       $unwind$_close             0000000180023cf0     LIBCMT:close.obj
 0002:0000ad18       $unwind$__initconout       0000000180023d18     LIBCMT:initcon.obj
 0002:0000ad18       $unwind$_cfltcvt           0000000180023d18     LIBCMT:initcon.obj
 0002:0000ad18       $unwind$?_Xout_of_range@std@@YAXPEBD@Z 0000000180023d18     LIBCMT:initcon.obj
 0002:0000ad18       $unwind$?_Xbad_alloc@std@@YAXXZ 0000000180023d18     LIBCMT:initcon.obj
 0002:0000ad18       $unwind$?_Xlength_error@std@@YAXPEBD@Z 0000000180023d18     LIBCMT:initcon.obj
 0002:0000ad20       $unwind$_flswbuf           0000000180023d20     LIBCMT:_flswbuf.obj
 0002:0000ad34       $unwind$__mtold12          0000000180023d34     LIBCMT:mantold.obj
 0002:0000ad4c       $unwind$__delayLoadHelper2 0000000180023d4c     DelayImp:delayhlp.obj
 0002:0000ad64       $unwind$?__SehTransFilter@@YAHPEAU_EXCEPTION_POINTERS@@PEAUEHExceptionRecord@@PEA_KPEAU_CONTEXT@@PEAU_xDISPATCHER_CONTEXT@@PEBU_s_FuncInfo@@PEAH@Z 0000000180023d64     LIBCMT:strnicmp.obj
 0002:0000ad64       $unwind$_strnicmp_l        0000000180023d64     LIBCMT:strnicmp.obj
 0002:0000ad78       $unwind$_strdup            0000000180023d78     LIBCMT:strdup.obj
 0002:0000c2b0       .edata                     00000001800252b0     serialport.exp
 0002:0000c2d8       rgpv                       00000001800252d8     serialport.exp
 0002:0000c2dc       rgszName                   00000001800252dc     serialport.exp
 0002:0000c2e0       rgwOrd                     00000001800252e0     serialport.exp
 0002:0000c2e2       szName                     00000001800252e2     serialport.exp
 0002:0000c2f2       $N00001                    00000001800252f2     serialport.exp
 0002:0000c772       .idata$6                   0000000180025772     kernel32:KERNEL32.dll
 0002:0000c7a2       .idata$6                   00000001800257a2     advapi32:ADVAPI32.dll
 0002:0000c85a       .idata$6                   000000018002585a     setupapi:SETUPAPI.dll
 0003:00000000       _assertstring              0000000180026000     LIBCMT:wassert.obj
 0003:00000050       dotdotdot                  0000000180026050     LIBCMT:wassert.obj
 0003:00000058       newline                    0000000180026058     LIBCMT:wassert.obj
 0003:00000060       dblnewline                 0000000180026060     LIBCMT:wassert.obj
 0003:00000090       errtable                   0000000180026090     LIBCMT:dosmap.obj
 0003:000001f8       ErrnoNoMem                 00000001800261f8     LIBCMT:dosmap.obj
 0003:000001fc       DoserrorNoMem              00000001800261fc     LIBCMT:dosmap.obj
 0003:000005d0       ?dazSupported@?1??_ctrlfp@@9@9 00000001800265d0     LIBCMT:fpctrl.obj
 0003:000005f0       ?isPackaged@?1??__crtIsPackagedApp@@9@9 00000001800265f0     LIBCMT:winapisupp.obj
 0003:00000a38       __rgctypeflag              0000000180026a38     LIBCMT:mbctype.obj
 0003:00000a40       __rgcode_page_info         0000000180026a40     LIBCMT:mbctype.obj
 0003:00000f80       _ctype_loc_style           0000000180026f80     LIBCMT:wsetloca.obj
 0003:00001040       _locktable                 0000000180027040     LIBCMT:mlock.obj
 0003:00001280       ?_names@?1??_get_fname@@9@9 0000000180027280     LIBCMT:fpexcept.obj
 0003:00001548       DoubleFormat               0000000180027548     LIBCMT:intrncvt.obj
 0003:00001560       FloatFormat                0000000180027560     LIBCMT:intrncvt.obj
 0003:00001850       _module                    0000000180027850     serialport.obj
 0003:00001ba8       allocator_arg              0000000180027ba8     libcpmt:syserror.obj
 0003:00001ba9       piecewise_construct        0000000180027ba9     libcpmt:syserror.obj
 0003:00001baa       _Tuple_alloc               0000000180027baa     libcpmt:xthrow.obj
 0003:00001bab       ignore                     0000000180027bab     libcpmt:xthrow.obj
 0003:00001bac       allocator_arg              0000000180027bac     libcpmt:xthrow.obj
 0003:00001bad       piecewise_construct        0000000180027bad     libcpmt:xthrow.obj
 0003:00001bb0       GS_ExceptionRecord         0000000180027bb0     LIBCMT:gs_report.obj
 0003:00001c50       GS_ContextRecord           0000000180027c50     LIBCMT:gs_report.obj
 0003:00002120       DebuggerWasPresent         0000000180028120     LIBCMT:gs_report.obj
 0003:00002128       __proc_attached            0000000180028128     LIBCMT:dllcrt0.obj
 0003:000021c0       ?outmsg@?8??_NMSG_WRITE@@9@9 00000001800281c0     LIBCMT:crt0msg.obj
 0003:00002800       ctrlc_action               0000000180028800     LIBCMT:winsig.obj
 0003:00002808       ctrlbreak_action           0000000180028808     LIBCMT:winsig.obj
 0003:00002810       abort_action               0000000180028810     LIBCMT:winsig.obj
 0003:00002818       term_action                0000000180028818     LIBCMT:winsig.obj
 0003:00002820       ConsoleCtrlHandler_Installed 0000000180028820     LIBCMT:winsig.obj
 0003:00002828       ?pfnMessageBox@?1??__crtMessageBoxW@@9@9 0000000180028828     LIBCMT:crtmboxw.obj
 0003:00002830       ?pfnGetActiveWindow@?1??__crtMessageBoxW@@9@9 0000000180028830     LIBCMT:crtmboxw.obj
 0003:00002838       ?pfnGetLastActivePopup@?1??__crtMessageBoxW@@9@9 0000000180028838     LIBCMT:crtmboxw.obj
 0003:00002840       ?pfnGetProcessWindowStation@?1??__crtMessageBoxW@@9@9 0000000180028840     LIBCMT:crtmboxw.obj
 0003:00002848       ?pfnGetUserObjectInformation@?1??__crtMessageBoxW@@9@9 0000000180028848     LIBCMT:crtmboxw.obj
 0003:00002880       fSystemSet                 0000000180028880     LIBCMT:mbctype.obj
 0003:00002a90       ?_pgmname@?1??_setargv@@9@9 0000000180028a90     LIBCMT:stdargv.obj
 0003:00002ba8       __type_info_root_node      0000000180028ba8     LIBCMT:typname.obj
 0003:00002bc0       lclcritsects               0000000180028bc0     LIBCMT:mlock.obj
 0003:00002df0       g_pfnRtlGenRandom          0000000180028df0     LIBCMT:rand_s.obj
 0003:00002e08       __crtCallProc              0000000180028e08     LIBCMT:winapinls.obj
 0003:00002e10       __enable_percent_n         0000000180028e10     LIBCMT:printf.obj
 0003:00002e68       heap                       0000000180028e68     LIBCMT:undname.obj
 0003:00002ed0       allocator_arg              0000000180028ed0     serialport.obj
 0003:00002ed1       piecewise_construct        0000000180028ed1     serialport.obj
 0003:00002ed2       allocator_arg              0000000180028ed2     serialport_win.obj
 0003:00002ed3       piecewise_construct        0000000180028ed3     serialport_win.obj
 0004:00000000       $pdata$??__Eg_closingHandles@@YAXXZ 000000018002b000     serialport_win.obj
 0004:0000000c       $pdata$?FunctionCallbackWrapper@imp@Nan@@YAXAEBV?$FunctionCallbackInfo@VValue@v8@@@v8@@@Z 000000018002b00c     serialport.obj
 0004:00000018       $pdata$?NewInstance@Nan@@YA?AV?$MaybeLocal@VObject@v8@@@v8@@V?$Local@VObjectTemplate@v8@@@3@@Z 000000018002b018     serialport.obj
 0004:00000024       $pdata$?GetFunction@Nan@@YA?AV?$MaybeLocal@VFunction@v8@@@v8@@V?$Local@VFunctionTemplate@v8@@@3@@Z 000000018002b024     serialport.obj
 0004:00000030       $pdata$?Get@Nan@@YA?AV?$MaybeLocal@VValue@v8@@@v8@@V?$Local@VObject@v8@@@3@V?$Local@VValue@v8@@@3@@Z 000000018002b030     serialport.obj
 0004:0000003c       $pdata$?Has@Nan@@YA?AV?$Maybe@_N@v8@@V?$Local@VObject@v8@@@3@V?$Local@VString@v8@@@3@@Z 000000018002b03c     serialport.obj
 0004:00000048       $pdata$?convert@?$ToFactory@VBoolean@v8@@@imp@Nan@@SA?AV?$MaybeLocal@VBoolean@v8@@@v8@@V?$Local@VValue@v8@@@5@@Z 000000018002b048     serialport.obj
 0004:00000054       $pdata$?convert@?$ToFactory@VString@v8@@@imp@Nan@@SA?AV?$MaybeLocal@VString@v8@@@v8@@V?$Local@VValue@v8@@@5@@Z 000000018002b054     serialport.obj
 0004:00000060       $pdata$?convert@?$ToFactory@VInt32@v8@@@imp@Nan@@SA?AV?$MaybeLocal@VInt32@v8@@@v8@@V?$Local@VValue@v8@@@5@@Z 000000018002b060     serialport.obj
 0004:0000006c       $pdata$?convert@?$ToFactory@N@imp@Nan@@SA?AV?$Maybe@N@v8@@V?$Local@VValue@v8@@@5@@Z 000000018002b06c     serialport.obj
 0004:00000078       $pdata$?convert@?$ToFactory@H@imp@Nan@@SA?AV?$Maybe@H@v8@@V?$Local@VValue@v8@@@5@@Z 000000018002b078     serialport.obj
 0004:00000084       $pdata$?New@?$Factory@VFunctionTemplate@v8@@@imp@Nan@@SA?AV?$Local@VFunctionTemplate@v8@@@v8@@P6AXAEBV?$FunctionCallbackInfo@VValue@v8@@@3@@ZV?$Local@VValue@v8@@@5@V?$Local@VSignature@v8@@@5@@Z 000000018002b084     serialport.obj
 0004:00000090       $pdata$??1EscapableHandleScope@Nan@@QEAA@XZ 000000018002b090     serialport.obj
 0004:0000009c       $pdata$??1HandleScope@Nan@@QEAA@XZ 000000018002b09c     serialport.obj
 0004:000000a8       $pdata$?ThrowTypeError@Nan@@YAXPEBD@Z 000000018002b0a8     serialport.obj
 0004:000000b4       $pdata$??0Utf8String@Nan@@QEAA@V?$Local@VValue@v8@@@v8@@@Z 000000018002b0b4     serialport.obj
 0004:000000c0       $pdata$??1Callback@Nan@@QEAA@XZ 000000018002b0c0     serialport.obj
 0004:000000cc       $pdata$?Call@Callback@Nan@@QEBA?AV?$Local@VValue@v8@@@v8@@HQEAV34@@Z 000000018002b0cc     serialport.obj
 0004:000000d8       $pdata$?Call_@Callback@Nan@@AEBA?AV?$Local@VValue@v8@@@v8@@PEAVIsolate@4@V?$Local@VObject@v8@@@4@HQEAV34@@Z 000000018002b0d8     serialport.obj
 0004:000000e4       $pdata$??1?$Persistent@VObject@v8@@V?$NonCopyablePersistentTraits@VObject@v8@@@2@@Nan@@QEAA@XZ 000000018002b0e4     serialport_win.obj
 0004:000000e4       $pdata$??1?$Persistent@VFunction@v8@@V?$NonCopyablePersistentTraits@VFunction@v8@@@2@@Nan@@QEAA@XZ 000000018002b0e4     serialport.obj
 0004:000000f0       $pdata$?getValueFromObject@@YA?AV?$Local@VValue@v8@@@v8@@V?$Local@VObject@v8@@@2@V?$basic_string@DU?$char_traits@D@std@@V?$allocator@D@2@@std@@@Z 000000018002b0f0     serialport.obj
 0004:000000fc       $pdata$?getIntFromObject@@YAHV?$Local@VObject@v8@@@v8@@V?$basic_string@DU?$char_traits@D@std@@V?$allocator@D@2@@std@@@Z 000000018002b0fc     serialport.obj
 0004:00000108       $pdata$?getBoolFromObject@@YA_NV?$Local@VObject@v8@@@v8@@V?$basic_string@DU?$char_traits@D@std@@V?$allocator@D@2@@std@@@Z 000000018002b108     serialport.obj
 0004:00000114       $pdata$?getStringFromObj@@YA?AV?$Local@VString@v8@@@v8@@V?$Local@VObject@v8@@@2@V?$basic_string@DU?$char_traits@D@std@@V?$allocator@D@2@@std@@@Z 000000018002b114     serialport.obj
 0004:00000120       $pdata$?getDoubleFromObject@@YANV?$Local@VObject@v8@@@v8@@V?$basic_string@DU?$char_traits@D@std@@V?$allocator@D@2@@std@@@Z 000000018002b120     serialport.obj
 0004:0000012c       $pdata$?Open@@YAXAEBV?$FunctionCallbackInfo@VValue@v8@@@Nan@@@Z 000000018002b12c     serialport.obj
 0004:00000138       $pdata$?EIO_AfterOpen@@YAXPEAUuv_work_s@@@Z 000000018002b138     serialport.obj
 0004:00000144       $pdata$?Update@@YAXAEBV?$FunctionCallbackInfo@VValue@v8@@@Nan@@@Z 000000018002b144     serialport.obj
 0004:00000150       $pdata$?EIO_AfterUpdate@@YAXPEAUuv_work_s@@@Z 000000018002b150     serialport.obj
 0004:0000015c       $pdata$?Close@@YAXAEBV?$FunctionCallbackInfo@VValue@v8@@@Nan@@@Z 000000018002b15c     serialport.obj
 0004:00000168       $pdata$?EIO_AfterFlush@@YAXPEAUuv_work_s@@@Z 000000018002b168     serialport.obj
 0004:00000168       $pdata$?EIO_AfterDrain@@YAXPEAUuv_work_s@@@Z 000000018002b168     serialport.obj
 0004:00000168       $pdata$?EIO_AfterClose@@YAXPEAUuv_work_s@@@Z 000000018002b168     serialport.obj
 0004:00000174       $pdata$?Flush@@YAXAEBV?$FunctionCallbackInfo@VValue@v8@@@Nan@@@Z 000000018002b174     serialport.obj
 0004:00000180       $pdata$?Set@@YAXAEBV?$FunctionCallbackInfo@VValue@v8@@@Nan@@@Z 000000018002b180     serialport.obj
 0004:0000018c       $pdata$?EIO_AfterSet@@YAXPEAUuv_work_s@@@Z 000000018002b18c     serialport.obj
 0004:00000198       $pdata$?Get@@YAXAEBV?$FunctionCallbackInfo@VValue@v8@@@Nan@@@Z 000000018002b198     serialport.obj
 0004:000001a4       $pdata$?EIO_AfterGet@@YAXPEAUuv_work_s@@@Z 000000018002b1a4     serialport.obj
 0004:000001b0       $pdata$?Drain@@YAXAEBV?$FunctionCallbackInfo@VValue@v8@@@Nan@@@Z 000000018002b1b0     serialport.obj
 0004:000001bc       $pdata$?ToParityEnum@@YA?AW4SerialPortParity@@AEBV?$Local@VString@v8@@@v8@@@Z 000000018002b1bc     serialport.obj
 0004:000001c8       $pdata$init                000000018002b1c8     serialport.obj
 0004:000001d4       $pdata$??1?$basic_string@DU?$char_traits@D@std@@V?$allocator@D@2@@std@@QEAA@XZ 000000018002b1d4     serialport.obj
 0004:000001e0       $pdata$?assign@?$basic_string@DU?$char_traits@D@std@@V?$allocator@D@2@@std@@QEAAAEAV12@AEBV12@_K1@Z 000000018002b1e0     serialport.obj
 0004:000001ec       $pdata$?assign@?$basic_string@DU?$char_traits@D@std@@V?$allocator@D@2@@std@@QEAAAEAV12@PEBD_K@Z 000000018002b1ec     serialport.obj
 0004:000001f8       $pdata$?erase@?$basic_string@DU?$char_traits@D@std@@V?$allocator@D@2@@std@@QEAAAEAV12@_K0@Z 000000018002b1f8     serialport.obj
 0004:00000204       $pdata$?_Copy@?$basic_string@DU?$char_traits@D@std@@V?$allocator@D@2@@std@@QEAAX_K0@Z 000000018002b204     serialport.obj
 0004:00000210       $pdata$??$New@VString@v8@@V?$basic_string@DU?$char_traits@D@std@@V?$allocator@D@2@@std@@@Nan@@YA?AV?$MaybeLocal@VString@v8@@@v8@@V?$basic_string@DU?$char_traits@D@std@@V?$allocator@D@2@@std@@@Z 000000018002b210     serialport.obj
 0004:0000021c       $pdata$??$SetMethodAux@V?$Local@VObject@v8@@@v8@@@imp@Nan@@YAXV?$Local@VObject@v8@@@v8@@V?$Local@VString@v8@@@3@V?$Local@VFunctionTemplate@v8@@@3@ZZ 000000018002b21c     serialport.obj
 0004:00000228       $pdata$?Set@Nan@@YA?AV?$Maybe@_N@v8@@V?$Local@VObject@v8@@@3@V?$Local@VValue@v8@@@3@1@Z 000000018002b228     serialport_win.obj
 0004:00000234       $pdata$?Set@Nan@@YA?AV?$Maybe@_N@v8@@V?$Local@VObject@v8@@@3@IV?$Local@VValue@v8@@@3@@Z 000000018002b234     serialport_win.obj
 0004:00000240       $pdata$?convert@?$ToFactory@VInteger@v8@@@imp@Nan@@SA?AV?$MaybeLocal@VInteger@v8@@@v8@@V?$Local@VValue@v8@@@5@@Z 000000018002b240     serialport_win.obj
 0004:0000024c       $pdata$?Error@Nan@@YA?AV?$Local@VValue@v8@@@v8@@PEBD@Z 000000018002b24c     serialport_win.obj
 0004:00000258       $pdata$?ErrorCodeToString@@YAXPEBDHPEAD@Z 000000018002b258     serialport_win.obj
 0004:00000264       $pdata$?EIO_Open@@YAXPEAUuv_work_s@@@Z 000000018002b264     serialport_win.obj
 0004:00000270       $pdata$?EIO_Update@@YAXPEAUuv_work_s@@@Z 000000018002b270     serialport_win.obj
 0004:0000027c       $pdata$?EIO_Set@@YAXPEAUuv_work_s@@@Z 000000018002b27c     serialport_win.obj
 0004:00000288       $pdata$?EIO_Get@@YAXPEAUuv_work_s@@@Z 000000018002b288     serialport_win.obj
 0004:00000294       $pdata$?Write@@YAXAEBV?$FunctionCallbackInfo@VValue@v8@@@Nan@@@Z 000000018002b294     serialport_win.obj
 0004:000002a0       $pdata$?EIO_Write@@YAXPEAUuv_work_s@@@Z 000000018002b2a0     serialport_win.obj
 0004:000002ac       $pdata$?EIO_AfterWrite@@YAXPEAUuv_work_s@@@Z 000000018002b2ac     serialport_win.obj
 0004:000002b8       $pdata$?Read@@YAXAEBV?$FunctionCallbackInfo@VValue@v8@@@Nan@@@Z 000000018002b2b8     serialport_win.obj
 0004:000002c4       $pdata$?EIO_Read@@YAXPEAUuv_work_s@@@Z 000000018002b2c4     serialport_win.obj
 0004:000002d0       $pdata$?EIO_AfterRead@@YAXPEAUuv_work_s@@@Z 000000018002b2d0     serialport_win.obj
 0004:000002dc       $pdata$?EIO_Close@@YAXPEAUuv_work_s@@@Z 000000018002b2dc     serialport_win.obj
 0004:000002e8       $pdata$?List@@YAXAEBV?$FunctionCallbackInfo@VValue@v8@@@Nan@@@Z 000000018002b2e8     serialport_win.obj
 0004:000002f4       $pdata$??0ListBaton@@QEAA@XZ 000000018002b2f4     serialport_win.obj
 0004:00000300       $pdata$?EIO_List@@YAXPEAUuv_work_s@@@Z 000000018002b300     serialport_win.obj
 0004:0000030c       $pdata$?setIfNotEmpty@@YAXV?$Local@VObject@v8@@@v8@@V?$basic_string@DU?$char_traits@D@std@@V?$allocator@D@2@@std@@PEBD@Z 000000018002b30c     serialport_win.obj
 0004:00000318       $pdata$?EIO_AfterList@@YAXPEAUuv_work_s@@@Z 000000018002b318     serialport_win.obj
 0004:00000324       $pdata$??1ListResultItem@@QEAA@XZ 000000018002b324     serialport_win.obj
 0004:00000330       $pdata$?EIO_Flush@@YAXPEAUuv_work_s@@@Z 000000018002b330     serialport_win.obj
 0004:0000033c       $pdata$?EIO_Drain@@YAXPEAUuv_work_s@@@Z 000000018002b33c     serialport_win.obj
 0004:00000348       $pdata$??1?$list@PEAUListResultItem@@V?$allocator@PEAUListResultItem@@@std@@@std@@QEAA@XZ 000000018002b348     serialport_win.obj
 0004:00000354       $pdata$??1?$_List_buy@PEAUListResultItem@@V?$allocator@PEAUListResultItem@@@std@@@std@@QEAA@XZ 000000018002b354     serialport_win.obj
 0004:00000360       $pdata$??1?$_List_buy@HV?$allocator@H@std@@@std@@QEAA@XZ 000000018002b360     serialport_win.obj
 0004:0000036c       $pdata$??$_Buynode@AEBH@?$_List_buy@HV?$allocator@H@std@@@std@@QEAAPEAU?$_List_node@HPEAX@1@PEAU21@0AEBH@Z 000000018002b36c     serialport_win.obj
 0004:00000378       $pdata$?load_exe_hook@@YAP6A_JXZIPEAUDelayLoadInfo@@@Z 000000018002b378     win_delay_load_hook.obj
 0004:00000390       $pdata$??0bad_alloc@std@@QEAA@AEBV01@@Z 000000018002b390     libcpmt:xthrow.obj
 0004:0000039c       $pdata$??0length_error@std@@QEAA@AEBV01@@Z 000000018002b39c     libcpmt:xthrow.obj
 0004:000003a8       $pdata$??0logic_error@std@@QEAA@AEBV01@@Z 000000018002b3a8     libcpmt:xthrow.obj
 0004:000003b4       $pdata$??0out_of_range@std@@QEAA@AEBV01@@Z 000000018002b3b4     libcpmt:xthrow.obj
 0004:000003c0       $pdata$??_Gbad_alloc@std@@UEAAPEAXI@Z 000000018002b3c0     libcpmt:xthrow.obj
 0004:000003cc       $pdata$??_Glogic_error@std@@UEAAPEAXI@Z 000000018002b3cc     libcpmt:xthrow.obj
 0004:000003cc       $pdata$??_Glength_error@std@@UEAAPEAXI@Z 000000018002b3cc     libcpmt:xthrow.obj
 0004:000003cc       $pdata$??_Gout_of_range@std@@UEAAPEAXI@Z 000000018002b3cc     libcpmt:xthrow.obj
 0004:000003d8       $pdata$?_Xbad_alloc@std@@YAXXZ 000000018002b3d8     libcpmt:xthrow.obj
 0004:000003e4       $pdata$?_Xlength_error@std@@YAXPEBD@Z 000000018002b3e4     libcpmt:xthrow.obj
 0004:000003f0       $pdata$?_Xout_of_range@std@@YAXPEBD@Z 000000018002b3f0     libcpmt:xthrow.obj
 0004:00000414       $pdata$free                000000018002b414     LIBCMT:free.obj
 0004:00000420       $pdata$malloc              000000018002b420     LIBCMT:malloc.obj
 0004:0000042c       $pdata$_wassert            000000018002b42c     LIBCMT:wassert.obj
 0004:00000438       $pdata$swprintf            000000018002b438     LIBCMT:wassert.obj
 0004:00000444       $pdata$__onexitinit        000000018002b444     LIBCMT:onexit.obj
 0004:00000450       $pdata$_onexit             000000018002b450     LIBCMT:onexit.obj
 0004:0000045c       $pdata$atexit              000000018002b45c     LIBCMT:onexit.obj
 0004:00000468       $pdata$??2@YAPEAX_K@Z      000000018002b468     LIBCMT:new.obj
 0004:00000474       $pdata$_snprintf_s         000000018002b474     LIBCMT:sprintf.obj
 0004:00000480       $pdata$strstr              000000018002b480     LIBCMT:strstr.obj
 0004:00000498       $pdata$__raise_securityfailure 000000018002b498     LIBCMT:gs_report.obj
 0004:000004a4       $pdata$__report_gsfailure  000000018002b4a4     LIBCMT:gs_report.obj
 0004:000004b0       $pdata$__report_rangecheckfailure 000000018002b4b0     LIBCMT:gs_report.obj
 0004:000004bc       $pdata$__report_securityfailure 000000018002b4bc     LIBCMT:gs_report.obj
 0004:000004c8       $pdata$strncpy_s           000000018002b4c8     LIBCMT:strncpy_s.obj
 0004:000004d4       $pdata$??0_LocaleUpdate@@QEAA@PEAUlocaleinfo_struct@@@Z 000000018002b4d4     LIBCMT:stricmp.obj
 0004:000004e0       $pdata$_stricmp            000000018002b4e0     LIBCMT:stricmp.obj
 0004:000004ec       $pdata$_stricmp_l          000000018002b4ec     LIBCMT:stricmp.obj
 0004:000004f8       $pdata$_CRT_INIT           000000018002b4f8     LIBCMT:dllcrt0.obj
 0004:00000504       $pdata$_DllMainCRTStartup  000000018002b504     LIBCMT:dllcrt0.obj
 0004:00000510       $pdata$__DllMainCRTStartup 000000018002b510     LIBCMT:dllcrt0.obj
 0004:00000528       $pdata$_CxxThrowException  000000018002b528     LIBCMT:throw.obj
 0004:00000534       $pdata$?_GetEstablisherFrame@@YAPEA_KPEA_KPEAU_xDISPATCHER_CONTEXT@@PEBU_s_FuncInfo@@0@Z 000000018002b534     LIBCMT:trnsctrl.obj
 0004:00000540       $pdata$?_GetRangeOfTrysToCheck@@YAPEBU_s_TryBlockMapEntry@@PEA_KPEBU_s_FuncInfo@@HHPEAI2PEAU_xDISPATCHER_CONTEXT@@@Z 000000018002b540     LIBCMT:trnsctrl.obj
 0004:0000054c       $pdata$?__FrameUnwindToEmptyState@@YAXPEA_KPEAU_xDISPATCHER_CONTEXT@@PEBU_s_FuncInfo@@@Z 000000018002b54c     LIBCMT:trnsctrl.obj
 0004:00000558       $pdata$?__SehTransFilter@@YAHPEAU_EXCEPTION_POINTERS@@PEAUEHExceptionRecord@@PEA_KPEAU_CONTEXT@@PEAU_xDISPATCHER_CONTEXT@@PEBU_s_FuncInfo@@PEAH@Z 000000018002b558     LIBCMT:trnsctrl.obj
 0004:00000564       $pdata$_CallSETranslator   000000018002b564     LIBCMT:trnsctrl.obj
 0004:00000570       $pdata$_CreateFrameInfo    000000018002b570     LIBCMT:trnsctrl.obj
 0004:0000057c       $pdata$_FindAndUnlinkFrame 000000018002b57c     LIBCMT:trnsctrl.obj
 0004:00000588       $pdata$_GetImageBase       000000018002b588     LIBCMT:trnsctrl.obj
 0004:00000594       $pdata$_GetThrowImageBase  000000018002b594     LIBCMT:trnsctrl.obj
 0004:000005a0       $pdata$_IsExceptionObjectToBeDestroyed 000000018002b5a0     LIBCMT:trnsctrl.obj
 0004:000005ac       $pdata$_SetImageBase       000000018002b5ac     LIBCMT:trnsctrl.obj
 0004:000005b8       $pdata$_SetThrowImageBase  000000018002b5b8     LIBCMT:trnsctrl.obj
 0004:000005c4       $pdata$_UnwindNestedFrames 000000018002b5c4     LIBCMT:trnsctrl.obj
 0004:000005d0       $pdata$__CxxFrameHandler3  000000018002b5d0     LIBCMT:trnsctrl.obj
 0004:000005dc       $pdata$??8type_info@@QEBA_NAEBV0@@Z 000000018002b5dc     LIBCMT:typinfo.obj
 0004:000005e8       $pdata$??_Gtype_info@@UEAAPEAXI@Z 000000018002b5e8     LIBCMT:typinfo.obj
 0004:000005f4       $pdata$??0exception@std@@QEAA@AEBQEBD@Z 000000018002b5f4     LIBCMT:stdexcpt.obj
 0004:00000600       $pdata$??0exception@std@@QEAA@AEBV01@@Z 000000018002b600     LIBCMT:stdexcpt.obj
 0004:0000060c       $pdata$??4exception@std@@QEAAAEAV01@AEBV01@@Z 000000018002b60c     LIBCMT:stdexcpt.obj
 0004:00000618       $pdata$??_Gexception@std@@UEAAPEAXI@Z 000000018002b618     LIBCMT:stdexcpt.obj
 0004:00000624       $pdata$?_Copy_str@exception@std@@AEAAXPEBD@Z 000000018002b624     LIBCMT:stdexcpt.obj
 0004:00000630       $pdata$?_Tidy@exception@std@@AEAAXXZ 000000018002b630     LIBCMT:stdexcpt.obj
 0004:0000063c       $pdata$__isa_available_init 000000018002b63c     LIBCMT:cpu_disp.obj
 0004:00000648       $pdata$__doserrno          000000018002b648     LIBCMT:dosmap.obj
 0004:00000654       $pdata$_dosmaperr          000000018002b654     LIBCMT:dosmap.obj
 0004:00000660       $pdata$_errno              000000018002b660     LIBCMT:dosmap.obj
 0004:0000066c       $pdata$_heap_init          000000018002b66c     LIBCMT:heapinit.obj
 0004:00000678       $pdata$_callnewh           000000018002b678     LIBCMT:handler.obj
 0004:00000684       $pdata$__crtCorExitProcess 000000018002b684     LIBCMT:crt0dat.obj
 0004:00000690       $pdata$__crtExitProcess    000000018002b690     LIBCMT:crt0dat.obj
 0004:0000069c       $pdata$__freeCrtMemory     000000018002b69c     LIBCMT:crt0dat.obj
 0004:000006a8       $pdata$_amsg_exit          000000018002b6a8     LIBCMT:crt0dat.obj
 0004:000006b4       $pdata$_cinit              000000018002b6b4     LIBCMT:crt0dat.obj
 0004:000006c0       $pdata$_init_pointers      000000018002b6c0     LIBCMT:crt0dat.obj
 0004:000006cc       $pdata$_initterm           000000018002b6cc     LIBCMT:crt0dat.obj
 0004:000006d8       $pdata$_initterm_e         000000018002b6d8     LIBCMT:crt0dat.obj
 0004:000006e4       $pdata$doexit              000000018002b6e4     LIBCMT:crt0dat.obj
 0004:000006f0       $pdata$_FF_MSGBANNER       000000018002b6f0     LIBCMT:crt0msg.obj
 0004:000006fc       $pdata$_NMSG_WRITE         000000018002b6fc     LIBCMT:crt0msg.obj
 0004:00000708       $pdata$_call_reportfault   000000018002b708     LIBCMT:invarg.obj
 0004:00000714       $pdata$_invalid_parameter  000000018002b714     LIBCMT:invarg.obj
 0004:00000720       $pdata$_invalid_parameter_noinfo 000000018002b720     LIBCMT:invarg.obj
 0004:0000072c       $pdata$_invoke_watson      000000018002b72c     LIBCMT:invarg.obj
 0004:00000738       $pdata$memcpy_s            000000018002b738     LIBCMT:memcpy_s.obj
 0004:00000744       $pdata$wcscat_s            000000018002b744     LIBCMT:wcscat_s.obj
 0004:00000750       $pdata$wcscpy_s            000000018002b750     LIBCMT:wcscpy_s.obj
 0004:0000075c       $pdata$wcsncat_s           000000018002b75c     LIBCMT:wcsncat_s.obj
 0004:00000768       $pdata$abort               000000018002b768     LIBCMT:abort.obj
 0004:00000774       $pdata$_set_error_mode     000000018002b774     LIBCMT:errmode.obj
 0004:00000780       $pdata$_itow_s             000000018002b780     LIBCMT:xtows.obj
 0004:0000078c       $pdata$xtow_s              000000018002b78c     LIBCMT:xtows.obj
 0004:00000798       $pdata$__initstdio         000000018002b798     LIBCMT:_file.obj
 0004:000007a4       $pdata$__endstdio          000000018002b7a4     LIBCMT:_file.obj
 0004:000007b0       $pdata$_lock_file          000000018002b7b0     LIBCMT:_file.obj
 0004:000007bc       $pdata$_lock_file2         000000018002b7bc     LIBCMT:_file.obj
 0004:000007c8       $pdata$_fflush_nolock      000000018002b7c8     LIBCMT:fflush.obj
 0004:000007d4       $pdata$_flush              000000018002b7d4     LIBCMT:fflush.obj
 0004:000007e0       $pdata$fflush              000000018002b7e0     LIBCMT:fflush.obj
 0004:000007ec       $pdata$flsall              000000018002b7ec     LIBCMT:fflush.obj
 0004:000007f8       $pdata$setvbuf             000000018002b7f8     LIBCMT:setvbuf.obj
 0004:00000804       $pdata$fwprintf            000000018002b804     LIBCMT:fwprintf.obj
 0004:00000810       $pdata$_vswprintf_c_l      000000018002b810     LIBCMT:vswprnc.obj
 0004:0000081c       $pdata$_vswprintf_helper   000000018002b81c     LIBCMT:vswprnc.obj
 0004:00000828       $pdata$raise               000000018002b828     LIBCMT:winsig.obj
 0004:00000834       $pdata$__crtMessageBoxW    000000018002b834     LIBCMT:crtmboxw.obj
 0004:00000840       $pdata$__GSHandlerCheck    000000018002b840     LIBCMT:gshandler.obj
 0004:0000084c       $pdata$__GSHandlerCheckCommon 000000018002b84c     LIBCMT:gshandler.obj
 0004:00000858       $pdata$_msize              000000018002b858     LIBCMT:msize.obj
 0004:00000864       $pdata$_calloc_crt         000000018002b864     LIBCMT:crtheap.obj
 0004:00000870       $pdata$_malloc_crt         000000018002b870     LIBCMT:crtheap.obj
 0004:0000087c       $pdata$_realloc_crt        000000018002b87c     LIBCMT:crtheap.obj
 0004:00000888       $pdata$__C_specific_handler 000000018002b888     LIBCMT:chandler.obj
 0004:00000894       $pdata$_flsbuf             000000018002b894     LIBCMT:_flsbuf.obj
 0004:000008a0       $pdata$_vsnprintf_helper   000000018002b8a0     LIBCMT:vsnprnc.obj
 0004:000008ac       $pdata$_vsnprintf_s_l      000000018002b8ac     LIBCMT:vsnprnc.obj
 0004:000008c4       $pdata$__crtCaptureCurrentContext 000000018002b8c4     LIBCMT:winapisupp.obj
 0004:000008d0       $pdata$__crtCapturePreviousContext 000000018002b8d0     LIBCMT:winapisupp.obj
 0004:000008dc       $pdata$__crtInitializeCriticalSectionEx 000000018002b8dc     LIBCMT:winapisupp.obj
 0004:000008e8       $pdata$__crtIsPackagedApp  000000018002b8e8     LIBCMT:winapisupp.obj
 0004:000008f4       $pdata$__crtLoadWinApiPointers 000000018002b8f4     LIBCMT:winapisupp.obj
 0004:00000900       $pdata$__crtTerminateProcess 000000018002b900     LIBCMT:winapisupp.obj
 0004:0000090c       $pdata$__crtUnhandledException 000000018002b90c     LIBCMT:winapisupp.obj
 0004:00000918       $pdata$__freetlocinfo      000000018002b918     LIBCMT:localref.obj
 0004:00000924       $pdata$__updatetlocinfo    000000018002b924     LIBCMT:localref.obj
 0004:00000930       $pdata$_updatetlocinfoEx_nolock 000000018002b930     LIBCMT:localref.obj
 0004:0000093c       $pdata$__initmbctable      000000018002b93c     LIBCMT:mbctype.obj
 0004:00000948       $pdata$?getSystemCP@@YAHH@Z 000000018002b948     LIBCMT:mbctype.obj
 0004:00000954       $pdata$?setSBCS@@YAXPEAUthreadmbcinfostruct@@@Z 000000018002b954     LIBCMT:mbctype.obj
 0004:00000960       $pdata$?setSBUpLow@@YAXPEAUthreadmbcinfostruct@@@Z 000000018002b960     LIBCMT:mbctype.obj
 0004:0000096c       $pdata$__updatetmbcinfo    000000018002b96c     LIBCMT:mbctype.obj
 0004:00000978       $pdata$_setmbcp            000000018002b978     LIBCMT:mbctype.obj
 0004:00000984       $pdata$_setmbcp_nolock     000000018002b984     LIBCMT:mbctype.obj
 0004:00000990       $pdata$_tolower_l          000000018002b990     LIBCMT:tolower.obj
 0004:0000099c       $pdata$_freefls            000000018002b99c     LIBCMT:tidtable.obj
 0004:000009a8       $pdata$_freeptd            000000018002b9a8     LIBCMT:tidtable.obj
 0004:000009b4       $pdata$_getptd             000000018002b9b4     LIBCMT:tidtable.obj
 0004:000009c0       $pdata$_getptd_noexit      000000018002b9c0     LIBCMT:tidtable.obj
 0004:000009cc       $pdata$_initptd            000000018002b9cc     LIBCMT:tidtable.obj
 0004:000009d8       $pdata$_mtinit             000000018002b9d8     LIBCMT:tidtable.obj
 0004:000009e4       $pdata$_mtterm             000000018002b9e4     LIBCMT:tidtable.obj
 0004:000009f0       $pdata$_locterm            000000018002b9f0     LIBCMT:wsetloca.obj
 0004:000009fc       $pdata$_XcptFilter         000000018002b9fc     LIBCMT:winxfltr.obj
 0004:00000a08       $pdata$_ioinit             000000018002ba08     LIBCMT:ioinit.obj
 0004:00000a14       $pdata$_ioterm             000000018002ba14     LIBCMT:ioinit.obj
 0004:00000a20       $pdata$_setargv            000000018002ba20     LIBCMT:stdargv.obj
 0004:00000a2c       $pdata$parse_cmdline       000000018002ba2c     LIBCMT:stdargv.obj
 0004:00000a38       $pdata$_setenvp            000000018002ba38     LIBCMT:stdenvp.obj
 0004:00000a44       $pdata$__security_init_cookie 000000018002ba44     LIBCMT:gs_support.obj
 0004:00000a50       $pdata$__crtGetEnvironmentStringsA 000000018002ba50     LIBCMT:a_env.obj
 0004:00000a5c       $pdata$_RTC_Initialize     000000018002ba5c     LIBCMT:initsect.obj
 0004:00000a68       $pdata$_RTC_Terminate      000000018002ba68     LIBCMT:initsect.obj
 0004:00000a74       $pdata$__DestructExceptionObject 000000018002ba74     LIBCMT:frame.obj
 0004:00000a80       $pdata$??0bad_exception@std@@QEAA@AEBV01@@Z 000000018002ba80     LIBCMT:frame.obj
 0004:00000a8c       $pdata$??_Gbad_exception@std@@UEAAPEAXI@Z 000000018002ba8c     LIBCMT:frame.obj
 0004:00000a98       $pdata$?CatchIt@@YAXPEAUEHExceptionRecord@@PEA_KPEAU_CONTEXT@@PEAU_xDISPATCHER_CONTEXT@@PEBU_s_FuncInfo@@PEBU_s_HandlerType@@PEBU_s_CatchableType@@PEBU_s_TryBlockMapEntry@@H1EE@Z 000000018002ba98     LIBCMT:frame.obj
 0004:00000aa4       $pdata$?FindHandler@@YAXPEAUEHExceptionRecord@@PEA_KPEAU_CONTEXT@@PEAU_xDISPATCHER_CONTEXT@@PEBU_s_FuncInfo@@EH1@Z 000000018002baa4     LIBCMT:frame.obj
 0004:00000ab0       $pdata$?FindHandlerForForeignException@@YAXPEAUEHExceptionRecord@@PEA_KPEAU_CONTEXT@@PEAU_xDISPATCHER_CONTEXT@@PEBU_s_FuncInfo@@HH1@Z 000000018002bab0     LIBCMT:frame.obj
 0004:00000abc       $pdata$?IsInExceptionSpec@@YAEPEAUEHExceptionRecord@@PEBU_s_ESTypeList@@@Z 000000018002babc     LIBCMT:frame.obj
 0004:00000ac8       $pdata$__BuildCatchObject  000000018002bac8     LIBCMT:frame.obj
 0004:00000ad4       $pdata$__BuildCatchObjectHelper 000000018002bad4     LIBCMT:frame.obj
 0004:00000ae0       $pdata$__CxxCallCatchBlock 000000018002bae0     LIBCMT:frame.obj
 0004:00000aec       $pdata$__FrameUnwindFilter 000000018002baec     LIBCMT:frame.obj
 0004:00000af8       $pdata$__FrameUnwindToState 000000018002baf8     LIBCMT:frame.obj
 0004:00000b04       $pdata$__InternalCxxFrameHandler 000000018002bb04     LIBCMT:frame.obj
 0004:00000b10       $pdata$__TypeMatch         000000018002bb10     LIBCMT:frame.obj
 0004:00000b1c       $pdata$?__GetCurrentState@@YAHPEA_KPEAU_xDISPATCHER_CONTEXT@@PEBU_s_FuncInfo@@@Z 000000018002bb1c     LIBCMT:ehstate.obj
 0004:00000b28       $pdata$?__GetUnwindTryBlock@@YAHPEA_KPEAU_xDISPATCHER_CONTEXT@@PEBU_s_FuncInfo@@@Z 000000018002bb28     LIBCMT:ehstate.obj
 0004:00000b34       $pdata$?__SetUnwindTryBlock@@YAXPEA_KPEAU_xDISPATCHER_CONTEXT@@PEBU_s_FuncInfo@@H@Z 000000018002bb34     LIBCMT:ehstate.obj
 0004:00000b40       $pdata$?__StateFromIp@@YAHPEBU_s_FuncInfo@@PEAU_xDISPATCHER_CONTEXT@@_J@Z 000000018002bb40     LIBCMT:ehstate.obj
 0004:00000b4c       $pdata$?_inconsistency@@YAXXZ 000000018002bb4c     LIBCMT:hooks.obj
 0004:00000b58       $pdata$?terminate@@YAXXZ   000000018002bb58     LIBCMT:hooks.obj
 0004:00000b64       $pdata$_initp_eh_hooks     000000018002bb64     LIBCMT:hooks.obj
 0004:00000b7c       $pdata$?_Type_info_dtor@type_info@@CAXPEAV1@@Z 000000018002bb7c     LIBCMT:typname.obj
 0004:00000b88       $pdata$_cfltcvt            000000018002bb88     LIBCMT:cvt.obj
 0004:00000b94       $pdata$_cfltcvt_l          000000018002bb94     LIBCMT:cvt.obj
 0004:00000ba0       $pdata$_cftoa_l            000000018002bba0     LIBCMT:cvt.obj
 0004:00000bac       $pdata$_cftoe2_l           000000018002bbac     LIBCMT:cvt.obj
 0004:00000bb8       $pdata$_cftoe_l            000000018002bbb8     LIBCMT:cvt.obj
 0004:00000bc4       $pdata$_cftof2_l           000000018002bbc4     LIBCMT:cvt.obj
 0004:00000bd0       $pdata$_cftof_l            000000018002bbd0     LIBCMT:cvt.obj
 0004:00000bdc       $pdata$_cftog_l            000000018002bbdc     LIBCMT:cvt.obj
 0004:00000be8       $pdata$_cropzeros_l        000000018002bbe8     LIBCMT:cvt.obj
 0004:00000bf4       $pdata$_fassign_l          000000018002bbf4     LIBCMT:cvt.obj
 0004:00000c00       $pdata$_forcdecpt_l        000000018002bc00     LIBCMT:cvt.obj
 0004:00000c0c       $pdata$_initp_misc_cfltcvt_tab 000000018002bc0c     LIBCMT:cmiscdat.obj
 0004:00000c18       $pdata$strcpy_s            000000018002bc18     LIBCMT:strcpy_s.obj
 0004:00000c24       $pdata$_lock               000000018002bc24     LIBCMT:mlock.obj
 0004:00000c30       $pdata$_mtdeletelocks      000000018002bc30     LIBCMT:mlock.obj
 0004:00000c3c       $pdata$_mtinitlocknum      000000018002bc3c     LIBCMT:mlock.obj
 0004:00000c48       $pdata$_mtinitlocks        000000018002bc48     LIBCMT:mlock.obj
 0004:00000c54       $pdata$_IsNonwritableInCurrentImage 000000018002bc54     LIBCMT:pesect.obj
 0004:00000c60       $pdata$_ftbuf              000000018002bc60     LIBCMT:_sftbuf.obj
 0004:00000c6c       $pdata$_stbuf              000000018002bc6c     LIBCMT:_sftbuf.obj
 0004:00000c78       $pdata$wcsncpy_s           000000018002bc78     LIBCMT:wcsncpy_s.obj
 0004:00000c84       $pdata$_fcloseall          000000018002bc84     LIBCMT:closeall.obj
 0004:00000c90       $pdata$_fileno             000000018002bc90     LIBCMT:fileno.obj
 0004:00000c9c       $pdata$_commit             000000018002bc9c     LIBCMT:commit.obj
 0004:00000ca8       $pdata$_write              000000018002bca8     LIBCMT:write.obj
 0004:00000cb4       $pdata$_write_nolock       000000018002bcb4     LIBCMT:write.obj
 0004:00000cc0       $pdata$_freebuf            000000018002bcc0     LIBCMT:_freebuf.obj
 0004:00000ccc       $pdata$_woutput_l          000000018002bccc     LIBCMT:woutput.obj
 0004:00000cd8       $pdata$write_char          000000018002bcd8     LIBCMT:woutput.obj
 0004:00000ce4       $pdata$write_multi_char    000000018002bce4     LIBCMT:woutput.obj
 0004:00000cf0       $pdata$write_string        000000018002bcf0     LIBCMT:woutput.obj
 0004:00000cfc       $pdata$realloc             000000018002bcfc     LIBCMT:realloc.obj
 0004:00000d08       $pdata$_calloc_impl        000000018002bd08     LIBCMT:calloc_impl.obj
 0004:00000d44       $pdata$GetTableIndexFromLocaleName 000000018002bd44     LIBCMT:winapinls.obj
 0004:00000d50       $pdata$__crtDownlevelLocaleNameToLCID 000000018002bd50     LIBCMT:winapinls.obj
 0004:00000d5c       $pdata$__crtLCMapStringEx  000000018002bd5c     LIBCMT:winapinls.obj
 0004:00000d74       $pdata$_isatty             000000018002bd74     LIBCMT:isatty.obj
 0004:00000d80       $pdata$_lseeki64           000000018002bd80     LIBCMT:lseeki64.obj
 0004:00000d8c       $pdata$_lseeki64_nolock    000000018002bd8c     LIBCMT:lseeki64.obj
 0004:00000d98       $pdata$_getbuf             000000018002bd98     LIBCMT:_getbuf.obj
 0004:00000da4       $pdata$_output_s_l         000000018002bda4     LIBCMT:outputs.obj
 0004:00000db0       $pdata$write_char          000000018002bdb0     LIBCMT:outputs.obj
 0004:00000dbc       $pdata$write_multi_char    000000018002bdbc     LIBCMT:outputs.obj
 0004:00000dc8       $pdata$write_string        000000018002bdc8     LIBCMT:outputs.obj
 0004:00000dd4       $pdata$_isleadbyte_l       000000018002bdd4     LIBCMT:_wctype.obj
 0004:00000de0       $pdata$isleadbyte          000000018002bde0     LIBCMT:_wctype.obj
 0004:00000dec       $pdata$_wctomb_s_l         000000018002bdec     LIBCMT:wctomb.obj
 0004:00000df8       $pdata$wctomb_s            000000018002bdf8     LIBCMT:wctomb.obj
 0004:00000e04       $pdata$__free_lconv_mon    000000018002be04     LIBCMT:initmon.obj
 0004:00000e10       $pdata$__free_lconv_num    000000018002be10     LIBCMT:initnum.obj
 0004:00000e1c       $pdata$__free_lc_time      000000018002be1c     LIBCMT:inittime.obj
 0004:00000e28       $pdata$?__crtLCMapStringA_stat@@YAHPEAUlocaleinfo_struct@@PEB_WKPEBDHPEADHHH@Z 000000018002be28     LIBCMT:a_map.obj
 0004:00000e34       $pdata$__crtLCMapStringA   000000018002be34     LIBCMT:a_map.obj
 0004:00000e40       $pdata$?__crtGetStringTypeA_stat@@YAHPEAUlocaleinfo_struct@@KPEBDHPEAGHH@Z 000000018002be40     LIBCMT:a_str.obj
 0004:00000e4c       $pdata$__crtGetStringTypeA 000000018002be4c     LIBCMT:a_str.obj
 0004:00000e58       $pdata$_isctype_l          000000018002be58     LIBCMT:isctype.obj
 0004:00000e70       $pdata$?x_ismbbtype_l@@YAHPEAUlocaleinfo_struct@@IHH@Z 000000018002be70     LIBCMT:ismbbyte.obj
 0004:00000e88       $pdata$isdigit             000000018002be88     LIBCMT:_ctype.obj
 0004:00000e94       $pdata$strrchr             000000018002be94     LIBCMT:strrchr.obj
 0004:00000ea0       $pdata$_fptostr            000000018002bea0     LIBCMT:_fptostr.obj
 0004:00000eac       $pdata$__crt_atoflt_l      000000018002beac     LIBCMT:atodbl.obj
 0004:00000eb8       $pdata$_atodbl_l           000000018002beb8     LIBCMT:atodbl.obj
 0004:00000ec4       $pdata$__dtold             000000018002bec4     LIBCMT:cfout.obj
 0004:00000ed0       $pdata$_fltout2            000000018002bed0     LIBCMT:cfout.obj
 0004:00000edc       $pdata$_fclose_nolock      000000018002bedc     LIBCMT:fclose.obj
 0004:00000ee8       $pdata$fclose              000000018002bee8     LIBCMT:fclose.obj
 0004:00000ef4       $pdata$__lock_fhandle      000000018002bef4     LIBCMT:osfinfo.obj
 0004:00000f00       $pdata$_free_osfhnd        000000018002bf00     LIBCMT:osfinfo.obj
 0004:00000f0c       $pdata$_get_osfhandle      000000018002bf0c     LIBCMT:osfinfo.obj
 0004:00000f18       $pdata$_mbtowc_l           000000018002bf18     LIBCMT:mbtowc.obj
 0004:00000f24       $pdata$_putwch_nolock      000000018002bf24     LIBCMT:putwch.obj
 0004:00000f3c       $pdata$_fputwc_nolock      000000018002bf3c     LIBCMT:fputwc.obj
 0004:00000f48       $pdata$_ld12tod            000000018002bf48     LIBCMT:intrncvt.obj
 0004:00000f54       $pdata$_ld12tof            000000018002bf54     LIBCMT:intrncvt.obj
 0004:00000f60       $pdata$__strgtold12_l      000000018002bf60     LIBCMT:strgtold.obj
 0004:00000f6c       $pdata$$I10_OUTPUT         000000018002bf6c     LIBCMT:x10fout.obj
 0004:00000f78       $pdata$_close              000000018002bf78     LIBCMT:close.obj
 0004:00000f84       $pdata$_close_nolock       000000018002bf84     LIBCMT:close.obj
 0004:00000f90       $pdata$__termconout        000000018002bf90     LIBCMT:initcon.obj
 0004:00000f9c       $pdata$__initconout        000000018002bf9c     LIBCMT:initcon.obj
 0004:00000fa8       $pdata$_flswbuf            000000018002bfa8     LIBCMT:_flswbuf.obj
 0004:00000fb4       $pdata$__mtold12           000000018002bfb4     LIBCMT:mantold.obj
 0004:00000fc0       $pdata$__delayLoadHelper2  000000018002bfc0     DelayImp:delayhlp.obj
 0004:00000fcc       $pdata$_strnicmp           000000018002bfcc     LIBCMT:strnicmp.obj
 0004:00000fd8       $pdata$_strnicmp_l         000000018002bfd8     LIBCMT:strnicmp.obj
 0004:00000fe4       $pdata$_strdup             000000018002bfe4     LIBCMT:strdup.obj
 0004:00000ff0       $pdata$__GSHandlerCheck_EH 000000018002bff0     LIBCMT:gshandlereh.obj
 0004:00000ffc       $pdata$?dtor$0@?0??_Copy@?$basic_string@DU?$char_traits@D@std@@V?$allocator@D@2@@std@@QEAAX_K0@Z@4HA 000000018002bffc     serialport.obj
 0004:00001008       $pdata$?dtor$2@?0???__Eg_closingHandles@@YAXXZ@4HA 000000018002c008     serialport_win.obj
 0004:00001014       $pdata$?dtor$3@?0???__Eg_closingHandles@@YAXXZ@4HA 000000018002c014     serialport_win.obj
 0004:00001020       $pdata$?dtor$6@?0???0ListBaton@@QEAA@XZ@4HA 000000018002c020     serialport_win.obj
 0004:0000102c       $pdata$?dtor$7@?0???0ListBaton@@QEAA@XZ@4HA 000000018002c02c     serialport_win.obj
 0004:00001038       $pdata$?dtor$8@?0??EIO_List@@YAXPEAUuv_work_s@@@Z@4HA 000000018002c038     serialport_win.obj
 0004:00001044       $pdata$?dtor$9@?0??EIO_List@@YAXPEAUuv_work_s@@@Z@4HA 000000018002c044     serialport_win.obj
 0004:00001050       $pdata$?dtor$10@?0??EIO_List@@YAXPEAUuv_work_s@@@Z@4HA 000000018002c050     serialport_win.obj
 0004:0000105c       $pdata$?dtor$0@?0???$_Buynode@AEBH@?$_List_buy@HV?$allocator@H@std@@@std@@QEAAPEAU?$_List_node@HPEAX@1@PEAU21@0AEBH@Z@4HA 000000018002c05c     serialport_win.obj
 0004:00001068       $pdata$?dtor$1@?0???$_Buynode@AEBH@?$_List_buy@HV?$allocator@H@std@@@std@@QEAAPEAU?$_List_node@HPEAX@1@PEAU21@0AEBH@Z@4HA 000000018002c068     serialport_win.obj
 0004:00001074       $pdata$?dtor$2@?0???$_Buynode@AEBH@?$_List_buy@HV?$allocator@H@std@@@std@@QEAAPEAU?$_List_node@HPEAX@1@PEAU21@0AEBH@Z@4HA 000000018002c074     serialport_win.obj
 0004:00001080       $pdata$_onexit$fin$0       000000018002c080     LIBCMT:onexit.obj
 0004:0000108c       $pdata$_CRT_INIT$fin$0     000000018002c08c     LIBCMT:dllcrt0.obj
 0004:00001098       $pdata$__DllMainCRTStartup$filt$0 000000018002c098     LIBCMT:dllcrt0.obj
 0004:000010a4       $pdata$_CallSETranslator$filt$0 000000018002c0a4     LIBCMT:trnsctrl.obj
 0004:000010b0       $pdata$doexit$fin$0        000000018002c0b0     LIBCMT:crt0dat.obj
 0004:000010bc       $pdata$flsall$fin$0        000000018002c0bc     LIBCMT:fflush.obj
 0004:000010c8       $pdata$flsall$fin$1        000000018002c0c8     LIBCMT:fflush.obj
 0004:000010d4       $pdata$setvbuf$fin$0       000000018002c0d4     LIBCMT:setvbuf.obj
 0004:000010e0       $pdata$fwprintf$fin$0      000000018002c0e0     LIBCMT:fwprintf.obj
 0004:000010ec       $pdata$raise$fin$0         000000018002c0ec     LIBCMT:winsig.obj
 0004:000010f8       $pdata$_locterm$fin$0      000000018002c0f8     LIBCMT:localref.obj
 0004:000010f8       $pdata$__updatetlocinfo$fin$0 000000018002c0f8     LIBCMT:localref.obj
 0004:00001104       $pdata$__updatetmbcinfo$fin$0 000000018002c104     LIBCMT:mbctype.obj
 0004:00001104       $pdata$_setmbcp$fin$0      000000018002c104     LIBCMT:mbctype.obj
 0004:00001110       $pdata$_freefls$fin$1      000000018002c110     LIBCMT:tidtable.obj
 0004:00001110       $pdata$_initptd$fin$1      000000018002c110     LIBCMT:tidtable.obj
 0004:0000111c       $pdata$_initptd$fin$0      000000018002c11c     LIBCMT:tidtable.obj
 0004:0000111c       $pdata$_freefls$fin$0      000000018002c11c     LIBCMT:tidtable.obj
 0004:00001128       $pdata$_ioinit$fin$0       000000018002c128     LIBCMT:ioinit.obj
 0004:00001134       $pdata$__CxxCallCatchBlock$filt$0 000000018002c134     LIBCMT:frame.obj
 0004:00001140       $pdata$__CxxCallCatchBlock$fin$1 000000018002c140     LIBCMT:frame.obj
 0004:0000114c       $pdata$__DestructExceptionObject$filt$0 000000018002c14c     LIBCMT:frame.obj
 0004:00001158       $pdata$__FrameUnwindToState$filt$0 000000018002c158     LIBCMT:frame.obj
 0004:00001164       $pdata$__FrameUnwindToState$fin$1 000000018002c164     LIBCMT:frame.obj
 0004:00001170       $pdata$?fin$0@?0??_Type_info_dtor@type_info@@CAXPEAV1@@Z@4HA 000000018002c170     LIBCMT:typname.obj
 0004:0000117c       $pdata$_mtinitlocknum$fin$0 000000018002c17c     LIBCMT:mlock.obj
 0004:00001188       $pdata$_IsNonwritableInCurrentImage$filt$0 000000018002c188     LIBCMT:pesect.obj
 0004:00001194       $pdata$_fcloseall$fin$0    000000018002c194     LIBCMT:closeall.obj
 0004:000011a0       $pdata$_commit$fin$0       000000018002c1a0     LIBCMT:commit.obj
 0004:000011a0       $pdata$_close$fin$0        000000018002c1a0     LIBCMT:commit.obj
 0004:000011ac       $pdata$_lseeki64$fin$0     000000018002c1ac     LIBCMT:lseeki64.obj
 0004:000011ac       $pdata$_write$fin$0        000000018002c1ac     LIBCMT:lseeki64.obj
 0004:000011b8       $pdata$fflush$fin$0        000000018002c1b8     LIBCMT:fclose.obj
 0004:000011b8       $pdata$fclose$fin$0        000000018002c1b8     LIBCMT:fclose.obj
 0004:000011c4       $pdata$__lock_fhandle$fin$0 000000018002c1c4     LIBCMT:osfinfo.obj
 0004:000011d0       $pdata$??__Fg_closingHandles@@YAXXZ 000000018002c1d0     serialport_win.obj
 0005:00000060       $R000000                   000000018002d060     * linker generated manifest res *

 Exports

  ordinal    name

        1    _register_serialport_
